(lp0
(ireal_participants
participant
p1
(dp2
S'tablet_files'
p3
(lp4
S'522_tablet.bag'
p5
asS'xbox_files'
p6
(lp7
S'522_xbox_sa.bag'
p8
aS'522_xbox_man.bag'
p9
asS'test_num'
p10
S'522'
p11
sS'post_rank_pref_sa'
p12
(lp13
S'1'
p14
aS'4'
p15
aS'2'
p16
aS'3'
p17
asS'watch_sa_data'
p18
(lp19
F11.75
aF198.63783288002014
aI0
aF45.44
asS'phone_data'
p20
(lp21
F19.67
aF251.5414571762085
aI3
aF54.48
asS'pre_ever_played'
p22
I3
sS'xbox_man_data'
p23
(lp24
F21.9
aF229.3459529876709
aI3
aF0.0
asS'watch_files'
p25
(lp26
S'522_watch_man.bag'
p27
aS'522_watch_sa.bag'
p28
asS'pre_age_range'
p29
I4
sS'post_trust'
p30
g15
sS'pre_would_be_easy'
p31
(lp32
S'5'
p33
ag33
ag17
ag15
ag33
asS'tablet_data'
p34
(lp35
F21.81
aF245.41741704940796
aI3
aF50.43
asS'phone_files'
p36
(lp37
S'522_phone.bag'
p38
asS'post_rate_challenges_sa'
p39
(lp40
g33
ag15
ag15
ag17
ag16
asS'post_ease_of_use'
p41
(lp42
g14
ag16
ag17
ag15
ag15
ag33
ag15
ag33
asS'man_files'
p43
(lp44
g27
ag9
asS'files'
p45
(lp46
g27
ag28
ag8
ag9
ag5
ag38
asS'pre_trust'
p47
g15
sS'pre_health'
p48
I0
sS'pre_ability_technology'
p49
g33
sS'pre_spatial'
p50
g33
sS'path'
p51
S'/home/aransena/thesis_ws/Data/robot_testing/results/522'
p52
sS'post_rank_pref_man'
p53
(lp54
g16
ag14
ag15
ag17
asS'pre_how_often'
p55
I4
sS'xbox_sa_data'
p56
(lp57
F22.47
aF258.32990312576294
aI0
aF39.65
asS'gender'
p58
I1
sS'post_comment'
p59
S''
p60
sS'post_rate_challenges_man'
p61
(lp62
g33
ag16
ag16
ag17
ag16
asS'watch_man_data'
p63
(lp64
F21.54
aF287.22557377815247
aI0
aF0.0
asS'sa_files'
p65
(lp66
g28
ag8
asS'post_sit_stand'
p67
g17
sba(ireal_participants
participant
p68
(dp69
g3
(lp70
S'526_tablet.bag'
p71
asg6
(lp72
S'526_xbox_man.bag'
p73
aS'526_xbox_sa.bag'
p74
asg10
S'526'
p75
sg12
(lp76
g16
ag14
ag17
ag15
asg18
(lp77
F19.37
aF341.00362753868103
aI1
aF39.44
asg20
(lp78
F20.08
aF322.4304304122925
aI0
aF33.16
asg22
I1
sg23
(lp79
F20.58
aF203.2505133152008
aI0
aF0.0
asg25
(lp80
S'526_watch_sa.bag'
p81
aS'526_watch_man.bag'
p82
asg29
I4
sg30
g17
sg31
(lp83
g17
ag17
ag16
ag16
ag17
asg34
(lp84
F21.45
aF339.7582223415375
aI2
aF85.99
asg36
(lp85
S'526_phone.bag'
p86
asg39
(lp87
g33
ag17
ag33
ag33
ag33
asg41
(lp88
g33
ag15
ag17
ag17
ag33
ag33
ag15
ag15
asg43
(lp89
g73
ag82
asg45
(lp90
g86
ag71
ag73
ag74
ag81
ag82
asg47
g17
sg48
I0
sg49
g17
sg50
g15
sg51
S'/home/aransena/thesis_ws/Data/robot_testing/results/526'
p91
sg53
(lp92
g17
ag16
ag14
ag15
asg55
I1
sg56
(lp93
F21.52
aF357.3312613964081
aI1
aF29.39
asg58
I1
sg59
g60
sg61
(lp94
g33
ag17
ag15
ag33
ag33
asg63
(lp95
F0.0
aF365.0136775970459
aI0
aF0.12
asg65
(lp96
g74
ag81
asg67
g16
sba(ireal_participants
participant
p97
(dp98
g3
(lp99
S'527_tablet.bag'
p100
asg6
(lp101
S'527_xbox_man.bag'
p102
aS'527_xbox_sa.bag'
p103
asg10
S'527'
p104
sg12
(lp105
g17
ag14
ag15
ag16
asg18
(lp106
F20.1
aF451.62554144859314
aI0
aF43.62
asg20
(lp107
F20.47
aF451.51624751091003
aI4
aF19.01
asg22
I1
sg23
(lp108
F24.8
aF495.2005090713501
aI3
aF0.0
asg25
(lp109
S'527_watch_man.bag'
p110
aS'527_watch_sa.bag'
p111
asg29
I4
sg30
g15
sg31
(lp112
g17
ag16
ag16
ag16
ag17
asg34
(lp113
F22.12
aF385.87744545936584
aI0
aF35.77
asg36
(lp114
S'527_phone.bag'
p115
asg39
(lp116
g15
ag15
ag15
ag15
ag15
asg41
(lp117
g15
ag33
ag16
ag17
ag17
ag15
ag16
ag17
asg43
(lp118
g102
ag110
asg45
(lp119
g102
ag110
ag100
ag111
ag115
ag103
asg47
g15
sg48
I0
sg49
g16
sg50
g15
sg51
S'/home/aransena/thesis_ws/Data/robot_testing/results/527'
p120
sg53
(lp121
g15
ag17
ag14
ag16
asg55
I1
sg56
(lp122
F21.5
aF461.6071755886078
aI3
aF14.47
asg58
I2
sg59
g60
sg61
(lp123
g17
ag15
ag15
ag15
ag15
asg63
(lp124
F21.15
aF459.1126883029938
aI0
aF0.09
asg65
(lp125
g111
ag103
asg67
g33
sba.