(lp0
(ireal_participants
participant
p1
(dp2
S'tablet_files'
p3
(lp4
S'502_tablet.bag'
p5
asS'xbox_files'
p6
(lp7
S'502_xbox_man.bag'
p8
aS'502_xbox_sa.bag'
p9
asS'test_num'
p10
S'502'
p11
sS'post_rank_pref_sa'
p12
(lp13
S'3'
p14
aS'2'
p15
aS'4'
p16
aS'5'
p17
asS'watch_sa_data'
p18
(lp19
F22.03
aF331.9612286090851
aI1
aF24.94
asS'phone_data'
p20
(lp21
F22.84
aF355.6748924255371
aI2
aF48.11
asS'pre_ever_played'
p22
I3
sS'xbox_man_data'
p23
(lp24
F21.68
aF224.03005647659302
aI0
aF0.0
asS'watch_files'
p25
(lp26
S'502_watch_man.bag'
p27
aS'502_watch_sa.bag'
p28
asS'pre_age_range'
p29
I1
sS'post_trust'
p30
g14
sS'pre_would_be_easy'
p31
(lp32
g15
ag14
ag17
ag16
ag16
asS'tablet_data'
p33
(lp34
F21.38
aF287.8335256576538
aI1
aF65.71
asS'phone_files'
p35
(lp36
S'502_phone.bag'
p37
asS'post_rate_challenges_sa'
p38
(lp39
g16
ag16
ag15
ag16
ag14
asS'post_ease_of_use'
p40
(lp41
g15
ag14
ag16
ag17
ag15
ag14
ag14
ag16
asS'man_files'
p42
(lp43
g27
ag8
asS'files'
p44
(lp45
g27
ag5
ag37
ag28
ag8
ag9
asS'pre_trust'
p46
g16
sS'pre_health'
p47
I0
sS'pre_ability_technology'
p48
g16
sS'pre_spatial'
p49
g17
sS'path'
p50
S'/home/aransena/thesis_ws/Data/robot_testing/results/502'
p51
sS'post_rank_pref_man'
p52
(lp53
g14
ag15
aS'1'
p54
ag16
asS'pre_how_often'
p55
I4
sS'xbox_sa_data'
p56
(lp57
F20.11
aF213.48375153541565
aI1
aF15.13
asS'gender'
p58
I2
sS'post_comment'
p59
S''
p60
sS'post_rate_challenges_man'
p61
(lp62
g14
ag14
ag54
ag16
ag16
asS'watch_man_data'
p63
(lp64
F19.92
aF207.35547542572021
aI0
aF0.0
asS'sa_files'
p65
(lp66
g28
ag9
asS'post_sit_stand'
p67
g16
sba(ireal_participants
participant
p68
(dp69
g3
(lp70
S'510_tablet.bag'
p71
asg6
(lp72
S'510_xbox_man.bag'
p73
aS'510_xbox_sa.bag'
p74
asg10
S'510'
p75
sg12
(lp76
g16
ag15
ag54
ag14
asg18
(lp77
F20.03
aF344.0368528366089
aI0
aF31.02
asg20
(lp78
F18.73
aF187.95448517799377
aI0
aF17.24
asg22
I4
sg23
(lp79
F20.52
aF219.64056301116943
aI1
aF0.0
asg25
(lp80
S'510_watch_sa.bag'
p81
aS'510_watch_man.bag'
p82
asg29
I1
sg30
g14
sg31
(lp83
g16
ag16
ag17
ag14
ag17
asg33
(lp84
F19.71
aF288.2473385334015
aI1
aF35.42
asg35
(lp85
S'510_phone.bag'
p86
asg38
(lp87
g17
ag14
ag17
ag17
ag17
asg40
(lp88
g16
ag16
ag17
ag17
ag14
ag14
ag14
ag14
asg42
(lp89
g73
ag82
asg44
(lp90
g81
ag73
ag82
ag86
ag74
ag71
asg46
g14
sg47
I0
sg48
g17
sg49
g17
sg50
S'/home/aransena/thesis_ws/Data/robot_testing/results/510'
p91
sg52
(lp92
g54
ag15
ag14
ag16
asg55
I5
sg56
(lp93
F20.27
aF323.95311975479126
aI1
aF21.4
asg58
I1
sg59
g60
sg61
(lp94
g14
ag14
ag15
ag14
ag17
asg63
(lp95
F19.68
aF179.34899020195007
aI0
aF0.0
asg65
(lp96
g81
ag74
asg67
g16
sba(ireal_participants
participant
p97
(dp98
g3
(lp99
S'506_tablet.bag'
p100
asg6
(lp101
S'506_xbox_sa.bag'
p102
aS'506_xbox_man.bag'
p103
asg10
S'506'
p104
sg12
(lp105
g16
ag15
ag14
ag17
asg18
(lp106
F19.35
aF252.76305985450745
aI0
aF55.25
asg20
(lp107
F24.09
aF413.41479873657227
aI2
aF23.22
asg22
I4
sg23
(lp108
F21.1
aF193.40440702438354
aI0
aF0.0
asg25
(lp109
S'506_watch_sa.bag'
p110
aS'506_watch_man.bag'
p111
asg29
I1
sg30
g14
sg31
(lp112
g17
ag17
ag17
ag16
ag17
asg33
(lp113
F19.58
aF270.28555941581726
aI0
aF75.05
asg35
(lp114
S'506_phone.bag'
p115
asg38
(lp116
g16
ag16
ag15
ag14
ag54
asg40
(lp117
g15
ag14
ag14
ag16
ag14
ag16
ag14
ag16
asg42
(lp118
g103
ag111
asg44
(lp119
g110
ag115
ag100
ag102
ag103
ag111
asg46
g14
sg47
I0
sg48
g17
sg49
g16
sg50
S'/home/aransena/thesis_ws/Data/robot_testing/results/506'
p120
sg52
(lp121
g14
ag15
ag16
ag54
asg55
I4
sg56
(lp122
F21.99
aF276.92030787467957
aI0
aF4.88
asg58
I1
sg59
S'Manually controlling the robot with the smart watch was the biggest challenge.'
p123
sg61
(lp124
g14
ag15
ag16
ag14
ag16
asg63
(lp125
F0.0
aF383.1185462474823
aI1
aF0.0
asg65
(lp126
g110
ag102
asg67
g14
sba(ireal_participants
participant
p127
(dp128
g3
(lp129
S'530_tablet.bag'
p130
asg6
(lp131
S'530_xbox_sa.bag'
p132
aS'530_xbox_man.bag'
p133
asg10
S'530'
p134
sg12
(lp135
g15
ag14
ag54
ag16
asg18
(lp136
F20.49
aF262.6713593006134
aI0
aF38.2
asg20
(lp137
F20.04
aF286.7726962566376
aI0
aF49.69
asg22
I2
sg23
(lp138
F21.02
aF177.25406336784363
aI0
aF0.0
asg25
(lp139
S'530_watch_sa.bag'
p140
aS'530_watch_man.bag'
p141
asg29
I1
sg30
g17
sg31
(lp142
g17
ag17
ag17
ag17
ag17
asg33
(lp143
F20.13
aF251.78590774536133
aI0
aF52.0
asg35
(lp144
S'530_phone.bag'
p145
asg38
(lp146
g17
ag17
ag17
ag17
ag17
asg40
(lp147
g17
ag16
ag17
ag16
ag17
ag17
ag17
ag17
asg42
(lp148
g133
ag141
asg44
(lp149
g140
ag132
ag145
ag130
ag133
ag141
asg46
g17
sg47
I0
sg48
g16
sg49
g16
sg50
S'/home/aransena/thesis_ws/Data/robot_testing/results/530'
p150
sg52
(lp151
g16
ag14
ag54
ag15
asg55
I2
sg56
(lp152
F21.29
aF273.7697904109955
aI0
aF29.67
asg58
I1
sg59
S'Difficulty turning on the spot without moving forward/backward when not using watch'
p153
sg61
(lp154
g16
ag16
ag16
ag16
ag16
asg63
(lp155
F21.03
aF170.80404233932495
aI0
aF0.0
asg65
(lp156
g140
ag132
asg67
g15
sba(ireal_participants
participant
p157
(dp158
g3
(lp159
S'503_tablet.bag'
p160
asg6
(lp161
S'503_xbox_sa.bag'
p162
aS'503_xbox_man.bag'
p163
asg10
S'503'
p164
sg12
(lp165
g15
ag16
ag14
ag54
asg18
(lp166
F22.78
aF301.894739151001
aI1
aF43.59
asg20
(lp167
F22.35
aF341.36158871650696
aI1
aF37.56
asg22
I3
sg23
(lp168
F22.76
aF228.9703767299652
aI2
aF0.0
asg25
(lp169
S'503_watch_sa.bag'
p170
aS'503_watch_man.bag'
p171
asg29
I1
sg30
g17
sg31
(lp172
g17
ag17
ag17
ag16
ag17
asg33
(lp173
F21.9
aF306.77406907081604
aI1
aF18.93
asg35
(lp174
S'503_phone.bag'
p175
asg38
(lp176
g17
ag17
ag14
ag17
ag14
asg40
(lp177
g14
ag17
ag17
ag17
ag16
ag17
ag16
ag17
asg42
(lp178
g163
ag171
asg44
(lp179
g175
ag162
ag163
ag170
ag160
ag171
asg46
g17
sg47
I0
sg48
g17
sg49
g17
sg50
S'/home/aransena/thesis_ws/Data/robot_testing/results/503'
p180
sg52
(lp181
g14
ag15
ag16
ag54
asg55
I3
sg56
(lp182
F21.27
aF193.3876485824585
aI0
aF25.02
asg58
I1
sg59
S'"Having to cancel your rotate command when using manual watch I found challengi'
p183
sg61
(lp184
g15
ag16
ag15
ag14
ag17
asg63
(lp185
F22.62
aF230.59352445602417
aI1
aF0.0
asg65
(lp186
g162
ag170
asg67
g15
sba(ireal_participants
participant
p187
(dp188
g3
(lp189
S'532_tablet.bag'
p190
asg6
(lp191
S'532_xbox_man.bag'
p192
aS'532_xbox_sa.bag'
p193
asg10
S'532'
p194
sg12
(lp195
g14
ag54
ag15
ag16
asg18
(lp196
F18.05
aF203.51486110687256
aI0
aF31.1
asg20
(lp197
F22.52
aF211.7410957813263
aI1
aF58.79
asg22
I3
sg23
(lp198
F19.81
aF253.27346086502075
aI1
aF1.17
asg25
(lp199
S'532_watch_man.bag'
p200
aS'532_watch_sa.bag'
p201
asg29
I1
sg30
g16
sg31
(lp202
g17
ag17
ag14
ag16
ag16
asg33
(lp203
F19.38
aF233.70374822616577
aI0
aF35.8
asg35
(lp204
S'532_phone.bag'
p205
asg38
(lp206
g16
ag14
ag16
ag17
ag17
asg40
(lp207
g17
ag17
ag15
ag16
ag17
ag17
ag16
ag17
asg42
(lp208
g200
ag192
asg44
(lp209
g200
ag192
ag190
ag205
ag201
ag193
asg46
g16
sg47
I0
sg48
g16
sg49
g16
sg50
S'/home/aransena/thesis_ws/Data/robot_testing/results/532'
p210
sg52
(lp211
g54
ag14
ag15
ag16
asg55
I2
sg56
(lp212
F18.05
aF217.82855987548828
aI0
aF20.14
asg58
I2
sg59
g60
sg61
(lp213
g15
ag15
ag14
ag14
ag17
asg63
(lp214
F19.51
aF193.50738072395325
aI0
aF0.0
asg65
(lp215
g201
ag193
asg67
g15
sba.