(lp0
(ireal_participants
participant
p1
(dp2
S'tablet_files'
p3
(lp4
S'501_tablet.bag'
p5
asS'xbox_files'
p6
(lp7
S'501_xbox_man.bag'
p8
aS'501_xbox_sa.bag'
p9
asS'test_num'
p10
S'501'
p11
sS'post_rank_pref_sa'
p12
(lp13
S'2'
p14
aS'1'
p15
aS'4'
p16
aS'3'
p17
asS'watch_sa_data'
p18
(lp19
F21.57
aF282.43255281448364
aI0
aF51.02
asS'phone_data'
p20
(lp21
F20.44
aF297.2627296447754
aI2
aF77.2
asS'pre_ever_played'
p22
I3
sS'xbox_man_data'
p23
(lp24
F22.75
aF279.63302969932556
aI0
aF0.0
asS'watch_files'
p25
(lp26
S'501_watch_sa.bag'
p27
aS'501_watch_man.bag'
p28
asS'pre_age_range'
p29
I3
sS'post_trust'
p30
g17
sS'pre_would_be_easy'
p31
(lp32
S'5'
p33
ag16
ag14
ag17
ag16
asS'tablet_data'
p34
(lp35
F20.58
aF354.3858833312988
aI1
aF69.14
asS'phone_files'
p36
(lp37
S'501_phone.bag'
p38
asS'post_rate_challenges_sa'
p39
(lp40
g16
ag17
ag16
ag16
ag33
asS'post_ease_of_use'
p41
(lp42
g33
ag16
ag14
ag16
ag17
ag16
ag17
ag16
asS'man_files'
p43
(lp44
g8
ag28
asS'files'
p45
(lp46
g27
ag8
ag9
ag38
ag28
ag5
asS'pre_trust'
p47
g17
sS'pre_health'
p48
I0
sS'pre_ability_technology'
p49
g16
sS'pre_spatial'
p50
g16
sS'path'
p51
S'/home/aransena/thesis_ws/Data/robot_testing/results/501'
p52
sS'post_rank_pref_man'
p53
(lp54
g17
ag16
ag15
ag14
asS'pre_how_often'
p55
I3
sS'xbox_sa_data'
p56
(lp57
F20.76
aF344.4838984012604
aI0
aF56.65
asS'gender'
p58
I2
sS'post_comment'
p59
S''
p60
sS'post_rate_challenges_man'
p61
(lp62
g17
ag17
ag16
ag17
ag33
asS'watch_man_data'
p63
(lp64
F20.56
aF193.00572299957275
aI0
aF0.0
asS'sa_files'
p65
(lp66
g27
ag9
asS'post_sit_stand'
p67
g14
sba(ireal_participants
participant
p68
(dp69
g3
(lp70
S'504_tablet.bag'
p71
asg6
(lp72
S'504_xbox_sa.bag'
p73
aS'504_xbox_man.bag'
p74
asg10
S'504'
p75
sg12
(lp76
g14
ag17
ag15
ag16
asg18
(lp77
F23.23
aF386.15240931510925
aI2
aF24.76
asg20
(lp78
F20.63
aF349.38336086273193
aI6
aF31.38
asg22
I2
sg23
(lp79
F20.68
aF237.86830639839172
aI0
aF0.0
asg25
(lp80
S'504_watch_man.bag'
p81
aS'504_watch_sa.bag'
p82
asg29
I3
sg30
g16
sg31
(lp83
g16
ag16
ag14
ag17
ag16
asg34
(lp84
F19.85
aF374.5381851196289
aI0
aF22.8
asg36
(lp85
S'504_phone.bag'
p86
asg39
(lp87
g17
ag15
ag14
ag33
ag16
asg41
(lp88
g17
ag14
ag17
ag14
ag17
ag17
ag16
ag16
asg43
(lp89
g81
ag74
asg45
(lp90
g71
ag73
ag81
ag86
ag74
ag82
asg47
g16
sg48
I1
sg49
g16
sg50
g16
sg51
S'/home/aransena/thesis_ws/Data/robot_testing/results/504'
p91
sg53
(lp92
g16
ag15
ag14
ag17
asg55
I2
sg56
(lp93
F20.3
aF292.56960892677307
aI1
aF10.45
asg58
I1
sg59
g60
sg61
(lp94
g33
ag14
ag15
ag17
ag16
asg63
(lp95
F21.51
aF237.6772050857544
aI3
aF0.0
asg65
(lp96
g73
ag82
asg67
g15
sba.