(lp0
(ireal_participants
participant
p1
(dp2
S'tablet_files'
p3
(lp4
S'531_tablet.bag'
p5
asS'xbox_files'
p6
(lp7
S'531_xbox_sa.bag'
p8
aS'531_xbox_man.bag'
p9
asS'test_num'
p10
S'531'
p11
sS'post_rank_pref_sa'
p12
(lp13
S'3'
p14
aS'1'
p15
aS'4'
p16
aS'2'
p17
asS'watch_sa_data'
p18
(lp19
F20.37
aF221.0676498413086
aI0
aF20.16
asS'phone_data'
p20
(lp21
F22.83
aF240.15599918365479
aI2
aF29.78
asS'pre_ever_played'
p22
I4
sS'xbox_man_data'
p23
(lp24
F20.82
aF198.48191809654236
aI0
aF0.0
asS'watch_files'
p25
(lp26
S'531_watch_man.bag'
p27
aS'531_watch_sa.bag'
p28
asS'pre_age_range'
p29
I2
sS'post_trust'
p30
S'5'
p31
sS'pre_would_be_easy'
p32
(lp33
g16
ag31
ag31
ag16
ag16
asS'tablet_data'
p34
(lp35
F20.3
aF220.7873251438141
aI0
aF49.34
asS'phone_files'
p36
(lp37
S'531_phone.bag'
p38
asS'post_rate_challenges_sa'
p39
(lp40
g31
ag31
ag31
ag31
ag31
asS'post_ease_of_use'
p41
(lp42
g31
ag31
ag16
ag16
ag16
ag16
ag31
ag31
asS'man_files'
p43
(lp44
g27
ag9
asS'files'
p45
(lp46
g27
ag38
ag8
ag9
ag5
ag28
asS'pre_trust'
p47
g31
sS'pre_health'
p48
I0
sS'pre_ability_technology'
p49
g31
sS'pre_spatial'
p50
g31
sS'path'
p51
S'/home/aransena/thesis_ws/Data/robot_testing/results/531'
p52
sS'post_rank_pref_man'
p53
(lp54
g14
ag16
ag17
ag15
asS'pre_how_often'
p55
I4
sS'xbox_sa_data'
p56
(lp57
F20.1
aF180.4177052974701
aI0
aF32.26
asS'gender'
p58
I1
sS'post_comment'
p59
S''
p60
sS'post_rate_challenges_man'
p61
(lp62
g31
ag16
ag16
ag16
ag31
asS'watch_man_data'
p63
(lp64
F20.81
aF177.29782891273499
aI0
aF0.0
asS'sa_files'
p65
(lp66
g8
ag28
asS'post_sit_stand'
p67
g17
sba(ireal_participants
participant
p68
(dp69
g3
(lp70
S'507_tablet.bag'
p71
asg6
(lp72
S'507_xbox_sa.bag'
p73
aS'507_xbox_man.bag'
p74
asg10
S'507'
p75
sg12
(lp76
g15
ag14
ag17
ag16
asg18
(lp77
F19.26
aF312.91040897369385
aI0
aF39.62
asg20
(lp78
F22.17
aF394.16313433647156
aI0
aF72.5
asg22
I4
sg23
(lp79
F23.66
aF376.7095582485199
aI1
aF0.08
asg25
(lp80
S'507_watch_sa.bag'
p81
aS'507_watch_man.bag'
p82
asg29
I2
sg30
g14
sg32
(lp83
g31
ag31
ag14
ag16
ag16
asg34
(lp84
F21.22
aF300.0518274307251
aI1
aF58.2
asg36
(lp85
S'507_phone.bag'
p86
asg39
(lp87
g16
ag14
ag14
ag16
ag14
asg41
(lp88
g16
ag16
ag15
ag15
ag16
ag16
ag16
ag16
asg43
(lp89
g74
ag82
asg45
(lp90
g73
ag81
ag71
ag86
ag74
ag82
asg47
g17
sg48
I0
sg49
g16
sg50
g16
sg51
S'/home/aransena/thesis_ws/Data/robot_testing/results/507'
p91
sg53
(lp92
g17
ag15
ag14
ag16
asg55
I4
sg56
(lp93
F18.05
aF217.82855987548828
aI0
aF20.14
asg58
I2
sg59
g60
sg61
(lp94
g31
ag14
ag16
ag16
ag14
asg63
(lp95
F22.21
aF242.94363975524902
aI0
aF0.17
asg65
(lp96
g73
ag81
asg67
g17
sba(ireal_participants
participant
p97
(dp98
g3
(lp99
S'511_tablet.bag'
p100
asg6
(lp101
S'511_xbox_man.bag'
p102
aS'511_xbox_sa.bag'
p103
asg10
S'511'
p104
sg12
(lp105
g17
ag16
ag14
ag15
asg18
(lp106
F19.48
aF270.5371198654175
aI0
aF39.17
asg20
(lp107
F20.13
aF176.0304307937622
aI1
aF9.01
asg22
I2
sg23
(lp108
F19.25
aF164.03920316696167
aI0
aF0.0
asg25
(lp109
S'511_watch_man.bag'
p110
aS'511_watch_sa.bag'
p111
asg29
I2
sg30
g14
sg32
(lp112
g16
ag16
ag31
ag14
ag31
asg34
(lp113
F18.21
aF188.1677324771881
aI0
aF56.8
asg36
(lp114
S'511_phone.bag'
p115
asg39
(lp116
g31
ag16
ag16
ag17
ag16
asg41
(lp117
g14
ag16
ag31
ag31
ag16
ag16
ag14
ag16
asg43
(lp118
g102
ag110
asg45
(lp119
g102
ag103
ag100
ag115
ag110
ag111
asg47
g14
sg48
I0
sg49
g31
sg50
g16
sg51
S'/home/aransena/thesis_ws/Data/robot_testing/results/511'
p120
sg53
(lp121
g14
ag17
ag16
ag15
asg55
I3
sg56
(lp122
F20.3
aF225.88768649101257
aI1
aF0.0
asg58
I1
sg59
g60
sg61
(lp123
g31
ag16
ag14
ag17
ag14
asg63
(lp124
F20.08
aF214.44025874137878
aI0
aF0.14
asg65
(lp125
g103
ag111
asg67
g14
sba(ireal_participants
participant
p126
(dp127
g3
(lp128
S'512_tablet.bag'
p129
asg6
(lp130
S'512_xbox_sa.bag'
p131
aS'512_xbox_man.bag'
p132
asg10
S'512'
p133
sg12
(lp134
g16
ag17
ag15
ag14
asg18
(lp135
F22.16
aF211.49760270118713
aI0
aF23.42
asg20
(lp136
F23.04
aF231.1470103263855
aI1
aF53.87
asg22
I4
sg23
(lp137
F20.93
aF177.13793277740479
aI0
aF0.0
asg25
(lp138
S'512_watch_sa.bag'
p139
aS'512_watch_man.bag'
p140
asg29
I2
sg30
g31
sg32
(lp141
g31
ag31
ag31
ag31
ag31
asg34
(lp142
F22.01
aF260.3735156059265
aI0
aF29.97
asg36
(lp143
S'512_phone.bag'
p144
asg39
(lp145
g16
ag15
ag17
ag31
ag14
asg41
(lp146
g31
ag31
ag31
ag31
ag31
ag31
ag31
ag31
asg43
(lp147
g132
ag140
asg45
(lp148
g129
ag139
ag144
ag131
ag132
ag140
asg47
g31
sg48
I0
sg49
g16
sg50
g31
sg51
S'/home/aransena/thesis_ws/Data/robot_testing/results/512'
p149
sg53
(lp150
g17
ag16
ag14
ag15
asg55
I3
sg56
(lp151
F21.24
aF187.82772660255432
aI0
aF17.42
asg58
I1
sg59
S'Na'
p152
sg61
(lp153
g16
ag15
ag17
ag31
ag14
asg63
(lp154
F21.32
aF191.51208782196045
aI1
aF0.0
asg65
(lp155
g139
ag131
asg67
g14
sba(ireal_participants
participant
p156
(dp157
g3
(lp158
S'528_tablet.bag'
p159
asg6
(lp160
S'528_xbox_sa.bag'
p161
aS'528_xbox_man.bag'
p162
asg10
S'528'
p163
sg12
(lp164
g15
ag14
ag17
ag16
asg18
(lp165
F22.44
aF195.94462037086487
aI0
aF19.09
asg20
(lp166
F22.01
aF242.5545153617859
aI0
aF11.73
asg22
I1
sg23
(lp167
F22.47
aF305.59501814842224
aI2
aF0.0
asg25
(lp168
S'528_watch_man.bag'
p169
aS'528_watch_sa.bag'
p170
asg29
I2
sg30
g31
sg32
(lp171
g31
ag31
ag16
ag16
ag31
asg34
(lp172
F22.72
aF243.92030119895935
aI1
aF26.17
asg36
(lp173
S'528_phone.bag'
p174
asg39
(lp175
g17
ag31
ag16
ag31
ag31
asg41
(lp176
g31
ag16
ag31
ag16
ag31
ag16
ag31
ag16
asg43
(lp177
g169
ag162
asg45
(lp178
g159
ag174
ag169
ag161
ag162
ag170
asg47
g31
sg48
I0
sg49
g16
sg50
g31
sg51
S'/home/aransena/thesis_ws/Data/robot_testing/results/528'
p179
sg53
(lp180
g15
ag14
ag17
ag16
asg55
I2
sg56
(lp181
F21.39
aF223.55435991287231
aI0
aF21.82
asg58
I1
sg59
S'turning with x box controller had a speed increase. '
p182
sg61
(lp183
g17
ag16
ag14
ag14
ag31
asg63
(lp184
F21.45
aF168.83944177627563
aI0
aF0.0
asg65
(lp185
g161
ag170
asg67
g17
sba(ireal_participants
participant
p186
(dp187
g3
(lp188
S'513_tablet.bag'
p189
asg6
(lp190
S'513_xbox_man.bag'
p191
aS'513_xbox_sa.bag'
p192
asg10
S'513'
p193
sg12
(lp194
g16
ag15
ag14
ag17
asg18
(lp195
F22.09
aF310.7042489051819
aI0
aF33.16
asg20
(lp196
F23.27
aF267.5930006504059
aI1
aF20.84
asg22
I2
sg23
(lp197
F21.95
aF176.53118658065796
aI0
aF0.0
asg25
(lp198
S'513_watch_sa.bag'
p199
aS'513_watch_man.bag'
p200
asg29
I2
sg30
g31
sg32
(lp201
g31
ag31
ag31
ag16
ag31
asg34
(lp202
F22.94
aF279.46274995803833
aI1
aF0.0
asg36
(lp203
S'513_phone.bag'
p204
asg39
(lp205
g14
ag16
ag14
ag16
ag15
asg41
(lp206
g16
ag31
ag16
ag16
ag14
ag14
ag16
ag16
asg43
(lp207
g191
ag200
asg45
(lp208
g191
ag199
ag204
ag200
ag192
ag189
asg47
g16
sg48
I0
sg49
g16
sg50
g16
sg51
S'/home/aransena/thesis_ws/Data/robot_testing/results/513'
p209
sg53
(lp210
g14
ag16
ag15
ag17
asg55
I2
sg56
(lp211
F21.42
aF303.273579120636
aI2
aF21.04
asg58
I1
sg59
g60
sg61
(lp212
g17
ag14
ag17
ag14
ag16
asg63
(lp213
F21.84
aF204.02653408050537
aI1
aF0.2
asg65
(lp214
g199
ag192
asg67
g17
sba(ireal_participants
participant
p215
(dp216
g3
(lp217
S'533_tablet.bag'
p218
asg6
(lp219
S'533_xbox_man.bag'
p220
aS'533_xbox_sa.bag'
p221
asg10
S'533'
p222
sg12
(lp223
g17
ag15
ag14
ag16
asg18
(lp224
F21.67
aF238.12893557548523
aI0
aF25.92
asg20
(lp225
F22.2
aF209.5598795413971
aI0
aF0.0
asg22
I3
sg23
(lp226
F22.35
aF190.26851630210876
aI2
aF0.0
asg25
(lp227
S'533_watch_man.bag'
p228
aS'533_watch_sa.bag'
p229
asg29
I2
sg30
g31
sg32
(lp230
g16
ag16
ag16
ag14
ag17
asg34
(lp231
F22.57
aF277.4789972305298
aI1
aF88.33
asg36
(lp232
S'533_phone.bag'
p233
asg39
(lp234
g16
ag14
ag14
ag16
ag16
asg41
(lp235
g16
ag16
ag17
ag14
ag16
ag16
ag14
ag14
asg43
(lp236
g220
ag228
asg45
(lp237
g220
ag218
ag228
ag221
ag229
ag233
asg47
g16
sg48
I0
sg49
g16
sg50
g16
sg51
S'/home/aransena/thesis_ws/Data/robot_testing/results/533'
p238
sg53
(lp239
g17
ag15
ag14
ag16
asg55
I3
sg56
(lp240
F22.29
aF264.28590059280396
aI1
aF12.97
asg58
I2
sg59
g60
sg61
(lp241
g17
ag17
ag14
ag14
ag14
asg63
(lp242
F21.9
aF303.12743282318115
aI0
aF0.0
asg65
(lp243
g221
ag229
asg67
g17
sba(ireal_participants
participant
p244
(dp245
g3
(lp246
S'529_tablet.bag'
p247
asg6
(lp248
S'529_xbox_man.bag'
p249
aS'529_xbox_sa.bag'
p250
asg10
S'529'
p251
sg18
(lp252
F22.53
aF339.49237632751465
aI0
aF33.12
asg20
(lp253
F18.57
aF258.95931363105774
aI2
aF31.0
asg22
I2
sg23
(lp254
F19.34
aF257.0540211200714
aI1
aF0.0
asg25
(lp255
S'529_watch_sa.bag'
p256
aS'529_watch_man.bag'
p257
asg29
I2
sg32
(lp258
g31
ag31
ag16
ag17
ag31
asg34
(lp259
F19.14
aF227.5215404033661
aI0
aF39.41
asg36
(lp260
S'529_phone.bag'
p261
asg43
(lp262
g249
ag257
asg45
(lp263
g261
ag249
ag256
ag247
ag257
ag250
asg47
g14
sg48
I0
sg49
g31
sg50
g16
sg51
S'/home/aransena/thesis_ws/Data/robot_testing/results/529'
p264
sg55
I2
sg56
(lp265
F18.56
aF216.68525552749634
aI0
aF30.73
asg58
I1
sg63
(lp266
F21.19
aF204.18781733512878
aI0
aF0.0
asg65
(lp267
g256
ag250
asba.