(lp0
(ireal_participants
participant
p1
(dp2
S'tablet_files'
p3
(lp4
S'501_tablet.bag'
p5
asS'xbox_files'
p6
(lp7
S'501_xbox_man.bag'
p8
aS'501_xbox_sa.bag'
p9
asS'test_num'
p10
S'501'
p11
sS'post_rank_pref_sa'
p12
(lp13
S'2'
p14
aS'1'
p15
aS'4'
p16
aS'3'
p17
asS'watch_sa_data'
p18
(lp19
F21.57
aF282.43255281448364
aI0
aF51.02
asS'phone_data'
p20
(lp21
F20.44
aF297.2627296447754
aI2
aF77.2
asS'pre_ever_played'
p22
I3
sS'xbox_man_data'
p23
(lp24
F22.75
aF279.63302969932556
aI0
aF0.0
asS'watch_files'
p25
(lp26
S'501_watch_sa.bag'
p27
aS'501_watch_man.bag'
p28
asS'pre_age_range'
p29
I3
sS'post_trust'
p30
g17
sS'pre_would_be_easy'
p31
(lp32
S'5'
p33
ag16
ag14
ag17
ag16
asS'tablet_data'
p34
(lp35
F20.58
aF354.3858833312988
aI1
aF69.14
asS'phone_files'
p36
(lp37
S'501_phone.bag'
p38
asS'post_rate_challenges_sa'
p39
(lp40
g16
ag17
ag16
ag16
ag33
asS'post_ease_of_use'
p41
(lp42
g33
ag16
ag14
ag16
ag17
ag16
ag17
ag16
asS'man_files'
p43
(lp44
g8
ag28
asS'files'
p45
(lp46
g27
ag8
ag9
ag38
ag28
ag5
asS'pre_trust'
p47
g17
sS'pre_health'
p48
I0
sS'pre_ability_technology'
p49
g16
sS'pre_spatial'
p50
g16
sS'path'
p51
S'/home/aransena/thesis_ws/Data/robot_testing/results/501'
p52
sS'post_rank_pref_man'
p53
(lp54
g17
ag16
ag15
ag14
asS'pre_how_often'
p55
I3
sS'xbox_sa_data'
p56
(lp57
F20.76
aF344.4838984012604
aI0
aF56.65
asS'gender'
p58
I2
sS'post_comment'
p59
S''
p60
sS'post_rate_challenges_man'
p61
(lp62
g17
ag17
ag16
ag17
ag33
asS'watch_man_data'
p63
(lp64
F20.56
aF193.00572299957275
aI0
aF0.0
asS'sa_files'
p65
(lp66
g27
ag9
asS'post_sit_stand'
p67
g14
sba(ireal_participants
participant
p68
(dp69
g3
(lp70
S'507_tablet.bag'
p71
asg6
(lp72
S'507_xbox_sa.bag'
p73
aS'507_xbox_man.bag'
p74
asg10
S'507'
p75
sg12
(lp76
g15
ag17
ag14
ag16
asg18
(lp77
F19.26
aF312.91040897369385
aI0
aF39.62
asg20
(lp78
F22.17
aF394.16313433647156
aI0
aF72.5
asg22
I4
sg23
(lp79
F23.66
aF376.7095582485199
aI1
aF0.08
asg25
(lp80
S'507_watch_sa.bag'
p81
aS'507_watch_man.bag'
p82
asg29
I2
sg30
g17
sg31
(lp83
g33
ag33
ag17
ag16
ag16
asg34
(lp84
F21.22
aF300.0518274307251
aI1
aF58.2
asg36
(lp85
S'507_phone.bag'
p86
asg39
(lp87
g16
ag17
ag17
ag16
ag17
asg41
(lp88
g16
ag16
ag15
ag15
ag16
ag16
ag16
ag16
asg43
(lp89
g74
ag82
asg45
(lp90
g73
ag81
ag71
ag86
ag74
ag82
asg47
g14
sg48
I0
sg49
g16
sg50
g16
sg51
S'/home/aransena/thesis_ws/Data/robot_testing/results/507'
p91
sg53
(lp92
g14
ag15
ag17
ag16
asg55
I4
sg56
(lp93
F18.05
aF217.82855987548828
aI0
aF20.14
asg58
I2
sg59
g60
sg61
(lp94
g33
ag17
ag16
ag16
ag17
asg63
(lp95
F22.21
aF242.94363975524902
aI0
aF0.17
asg65
(lp96
g73
ag81
asg67
g14
sba(ireal_participants
participant
p97
(dp98
g3
(lp99
S'532_tablet.bag'
p100
asg6
(lp101
S'532_xbox_man.bag'
p102
aS'532_xbox_sa.bag'
p103
asg10
S'532'
p104
sg12
(lp105
g17
ag15
ag14
ag16
asg18
(lp106
F18.05
aF203.51486110687256
aI0
aF31.1
asg20
(lp107
F22.52
aF211.7410957813263
aI1
aF58.79
asg22
I3
sg23
(lp108
F19.81
aF253.27346086502075
aI1
aF1.17
asg25
(lp109
S'532_watch_man.bag'
p110
aS'532_watch_sa.bag'
p111
asg29
I1
sg30
g16
sg31
(lp112
g33
ag33
ag17
ag16
ag16
asg34
(lp113
F19.38
aF233.70374822616577
aI0
aF35.8
asg36
(lp114
S'532_phone.bag'
p115
asg39
(lp116
g16
ag17
ag16
ag33
ag33
asg41
(lp117
g33
ag33
ag14
ag16
ag33
ag33
ag16
ag33
asg43
(lp118
g110
ag102
asg45
(lp119
g110
ag102
ag100
ag115
ag111
ag103
asg47
g16
sg48
I0
sg49
g16
sg50
g16
sg51
S'/home/aransena/thesis_ws/Data/robot_testing/results/532'
p120
sg53
(lp121
g15
ag17
ag14
ag16
asg55
I2
sg56
(lp122
F18.05
aF217.82855987548828
aI0
aF20.14
asg58
I2
sg59
g60
sg61
(lp123
g14
ag14
ag17
ag17
ag33
asg63
(lp124
F19.51
aF193.50738072395325
aI0
aF0.0
asg65
(lp125
g111
ag103
asg67
g14
sba(ireal_participants
participant
p126
(dp127
g3
(lp128
S'527_tablet.bag'
p129
asg6
(lp130
S'527_xbox_man.bag'
p131
aS'527_xbox_sa.bag'
p132
asg10
S'527'
p133
sg12
(lp134
g17
ag15
ag16
ag14
asg18
(lp135
F20.1
aF451.62554144859314
aI0
aF43.62
asg20
(lp136
F20.47
aF451.51624751091003
aI4
aF19.01
asg22
I1
sg23
(lp137
F24.8
aF495.2005090713501
aI3
aF0.0
asg25
(lp138
S'527_watch_man.bag'
p139
aS'527_watch_sa.bag'
p140
asg29
I4
sg30
g16
sg31
(lp141
g17
ag14
ag14
ag14
ag17
asg34
(lp142
F22.12
aF385.87744545936584
aI0
aF35.77
asg36
(lp143
S'527_phone.bag'
p144
asg39
(lp145
g16
ag16
ag16
ag16
ag16
asg41
(lp146
g16
ag33
ag14
ag17
ag17
ag16
ag14
ag17
asg43
(lp147
g131
ag139
asg45
(lp148
g131
ag139
ag129
ag140
ag144
ag132
asg47
g16
sg48
I0
sg49
g14
sg50
g16
sg51
S'/home/aransena/thesis_ws/Data/robot_testing/results/527'
p149
sg53
(lp150
g16
ag17
ag15
ag14
asg55
I1
sg56
(lp151
F21.5
aF461.6071755886078
aI3
aF14.47
asg58
I2
sg59
g60
sg61
(lp152
g17
ag16
ag16
ag16
ag16
asg63
(lp153
F21.15
aF459.1126883029938
aI0
aF0.09
asg65
(lp154
g140
ag132
asg67
g33
sba(ireal_participants
participant
p155
(dp156
g3
(lp157
S'533_tablet.bag'
p158
asg6
(lp159
S'533_xbox_man.bag'
p160
aS'533_xbox_sa.bag'
p161
asg10
S'533'
p162
sg12
(lp163
g14
ag15
ag17
ag16
asg18
(lp164
F21.67
aF238.12893557548523
aI0
aF25.92
asg20
(lp165
F22.2
aF209.5598795413971
aI0
aF0.0
asg22
I3
sg23
(lp166
F22.35
aF190.26851630210876
aI2
aF0.0
asg25
(lp167
S'533_watch_man.bag'
p168
aS'533_watch_sa.bag'
p169
asg29
I2
sg30
g33
sg31
(lp170
g16
ag16
ag16
ag17
ag14
asg34
(lp171
F22.57
aF277.4789972305298
aI1
aF88.33
asg36
(lp172
S'533_phone.bag'
p173
asg39
(lp174
g16
ag17
ag17
ag16
ag16
asg41
(lp175
g16
ag16
ag14
ag17
ag16
ag16
ag17
ag17
asg43
(lp176
g160
ag168
asg45
(lp177
g160
ag158
ag168
ag161
ag169
ag173
asg47
g16
sg48
I0
sg49
g16
sg50
g16
sg51
S'/home/aransena/thesis_ws/Data/robot_testing/results/533'
p178
sg53
(lp179
g14
ag15
ag17
ag16
asg55
I3
sg56
(lp180
F22.29
aF264.28590059280396
aI1
aF12.97
asg58
I2
sg59
g60
sg61
(lp181
g14
ag14
ag17
ag17
ag17
asg63
(lp182
F21.9
aF303.12743282318115
aI0
aF0.0
asg65
(lp183
g161
ag169
asg67
g14
sba.