(lp0
(ireal_participants
participant
p1
(dp2
S'tablet_files'
p3
(lp4
S'502_tablet.bag'
p5
asS'xbox_files'
p6
(lp7
S'502_xbox_man.bag'
p8
aS'502_xbox_sa.bag'
p9
asS'test_num'
p10
S'502'
p11
sS'post_rank_pref_sa'
p12
(lp13
S'3'
p14
aS'2'
p15
aS'4'
p16
aS'5'
p17
asS'watch_sa_data'
p18
(lp19
F22.03
aF331.9612286090851
aI1
aF24.94
asS'phone_data'
p20
(lp21
F22.84
aF355.6748924255371
aI2
aF48.11
asS'pre_ever_played'
p22
I3
sS'xbox_man_data'
p23
(lp24
F21.68
aF224.03005647659302
aI0
aF0.0
asS'watch_files'
p25
(lp26
S'502_watch_man.bag'
p27
aS'502_watch_sa.bag'
p28
asS'pre_age_range'
p29
I1
sS'post_trust'
p30
g14
sS'pre_would_be_easy'
p31
(lp32
g15
ag14
ag17
ag16
ag16
asS'tablet_data'
p33
(lp34
F21.38
aF287.8335256576538
aI1
aF65.71
asS'phone_files'
p35
(lp36
S'502_phone.bag'
p37
asS'post_rate_challenges_sa'
p38
(lp39
g16
ag16
ag15
ag16
ag14
asS'post_ease_of_use'
p40
(lp41
g15
ag14
ag16
ag17
ag15
ag14
ag14
ag16
asS'man_files'
p42
(lp43
g27
ag8
asS'files'
p44
(lp45
g27
ag5
ag37
ag28
ag8
ag9
asS'pre_trust'
p46
g16
sS'pre_health'
p47
I0
sS'pre_ability_technology'
p48
g16
sS'pre_spatial'
p49
g17
sS'path'
p50
S'/home/aransena/thesis_ws/Data/robot_testing/results/502'
p51
sS'post_rank_pref_man'
p52
(lp53
g14
ag15
aS'1'
p54
ag16
asS'pre_how_often'
p55
I4
sS'xbox_sa_data'
p56
(lp57
F20.11
aF213.48375153541565
aI1
aF15.13
asS'gender'
p58
I2
sS'post_comment'
p59
S''
p60
sS'post_rate_challenges_man'
p61
(lp62
g14
ag14
ag54
ag16
ag16
asS'watch_man_data'
p63
(lp64
F19.92
aF207.35547542572021
aI0
aF0.0
asS'sa_files'
p65
(lp66
g28
ag9
asS'post_sit_stand'
p67
g16
sba.