(lp0
(ireal_participants
participant
p1
(dp2
S'tablet_files'
p3
(lp4
S'501_tablet.bag'
p5
asS'xbox_files'
p6
(lp7
S'501_xbox_man.bag'
p8
aS'501_xbox_sa.bag'
p9
asS'test_num'
p10
S'501'
p11
sS'post_rank_pref_sa'
p12
(lp13
S'2'
p14
aS'1'
p15
aS'4'
p16
aS'3'
p17
asS'watch_sa_data'
p18
(lp19
F21.57
aF282.43255281448364
aI0
aF51.02
asS'phone_data'
p20
(lp21
F20.44
aF297.2627296447754
aI2
aF77.2
asS'pre_ever_played'
p22
I3
sS'xbox_man_data'
p23
(lp24
F22.75
aF279.63302969932556
aI0
aF0.0
asS'watch_files'
p25
(lp26
S'501_watch_sa.bag'
p27
aS'501_watch_man.bag'
p28
asS'pre_age_range'
p29
I3
sS'post_trust'
p30
g17
sS'pre_would_be_easy'
p31
(lp32
S'5'
p33
ag16
ag14
ag17
ag16
asS'tablet_data'
p34
(lp35
F20.58
aF354.3858833312988
aI1
aF69.14
asS'phone_files'
p36
(lp37
S'501_phone.bag'
p38
asS'post_rate_challenges_sa'
p39
(lp40
g16
ag17
ag16
ag16
ag33
asS'post_ease_of_use'
p41
(lp42
g33
ag16
ag14
ag16
ag17
ag16
ag17
ag16
asS'man_files'
p43
(lp44
g8
ag28
asS'files'
p45
(lp46
g27
ag8
ag9
ag38
ag28
ag5
asS'pre_trust'
p47
g17
sS'pre_health'
p48
I0
sS'pre_ability_technology'
p49
g16
sS'pre_spatial'
p50
g16
sS'path'
p51
S'/home/aransena/thesis_ws/Data/robot_testing/results/501'
p52
sS'post_rank_pref_man'
p53
(lp54
g17
ag16
ag15
ag14
asS'pre_how_often'
p55
I3
sS'xbox_sa_data'
p56
(lp57
F20.76
aF344.4838984012604
aI0
aF56.65
asS'gender'
p58
I2
sS'post_comment'
p59
S''
p60
sS'post_rate_challenges_man'
p61
(lp62
g17
ag17
ag16
ag17
ag33
asS'watch_man_data'
p63
(lp64
F20.56
aF193.00572299957275
aI0
aF0.0
asS'sa_files'
p65
(lp66
g27
ag9
asS'post_sit_stand'
p67
g14
sba(ireal_participants
participant
p68
(dp69
g3
(lp70
S'502_tablet.bag'
p71
asg6
(lp72
S'502_xbox_man.bag'
p73
aS'502_xbox_sa.bag'
p74
asg10
S'502'
p75
sg12
(lp76
g17
ag14
ag16
ag33
asg18
(lp77
F22.03
aF331.9612286090851
aI1
aF24.94
asg20
(lp78
F22.84
aF355.6748924255371
aI2
aF48.11
asg22
I3
sg23
(lp79
F21.68
aF224.03005647659302
aI0
aF0.0
asg25
(lp80
S'502_watch_man.bag'
p81
aS'502_watch_sa.bag'
p82
asg29
I1
sg30
g17
sg31
(lp83
g14
ag17
ag33
ag16
ag16
asg34
(lp84
F21.38
aF287.8335256576538
aI1
aF65.71
asg36
(lp85
S'502_phone.bag'
p86
asg39
(lp87
g16
ag16
ag14
ag16
ag17
asg41
(lp88
g14
ag17
ag16
ag33
ag14
ag17
ag17
ag16
asg43
(lp89
g81
ag73
asg45
(lp90
g81
ag71
ag86
ag82
ag73
ag74
asg47
g16
sg48
I0
sg49
g16
sg50
g33
sg51
S'/home/aransena/thesis_ws/Data/robot_testing/results/502'
p91
sg53
(lp92
g17
ag14
ag15
ag16
asg55
I4
sg56
(lp93
F20.11
aF213.48375153541565
aI1
aF15.13
asg58
I2
sg59
g60
sg61
(lp94
g17
ag17
ag15
ag16
ag16
asg63
(lp95
F19.92
aF207.35547542572021
aI0
aF0.0
asg65
(lp96
g82
ag74
asg67
g16
sba(ireal_participants
participant
p97
(dp98
g3
(lp99
S'522_tablet.bag'
p100
asg6
(lp101
S'522_xbox_sa.bag'
p102
aS'522_xbox_man.bag'
p103
asg10
S'522'
p104
sg12
(lp105
g15
ag16
ag14
ag17
asg18
(lp106
F11.75
aF198.63783288002014
aI0
aF45.44
asg20
(lp107
F19.67
aF251.5414571762085
aI3
aF54.48
asg22
I3
sg23
(lp108
F21.9
aF229.3459529876709
aI3
aF0.0
asg25
(lp109
S'522_watch_man.bag'
p110
aS'522_watch_sa.bag'
p111
asg29
I4
sg30
g16
sg31
(lp112
g33
ag33
ag17
ag16
ag33
asg34
(lp113
F21.81
aF245.41741704940796
aI3
aF50.43
asg36
(lp114
S'522_phone.bag'
p115
asg39
(lp116
g33
ag16
ag16
ag17
ag14
asg41
(lp117
g15
ag14
ag17
ag16
ag16
ag33
ag16
ag33
asg43
(lp118
g110
ag103
asg45
(lp119
g110
ag111
ag102
ag103
ag100
ag115
asg47
g16
sg48
I0
sg49
g33
sg50
g33
sg51
S'/home/aransena/thesis_ws/Data/robot_testing/results/522'
p120
sg53
(lp121
g14
ag15
ag16
ag17
asg55
I4
sg56
(lp122
F22.47
aF258.32990312576294
aI0
aF39.65
asg58
I1
sg59
g60
sg61
(lp123
g33
ag14
ag14
ag17
ag14
asg63
(lp124
F21.54
aF287.22557377815247
aI0
aF0.0
asg65
(lp125
g111
ag102
asg67
g17
sba(ireal_participants
participant
p126
(dp127
g3
(lp128
S'503_tablet.bag'
p129
asg6
(lp130
S'503_xbox_sa.bag'
p131
aS'503_xbox_man.bag'
p132
asg10
S'503'
p133
sg12
(lp134
g14
ag16
ag17
ag15
asg18
(lp135
F22.78
aF301.894739151001
aI1
aF43.59
asg20
(lp136
F22.35
aF341.36158871650696
aI1
aF37.56
asg22
I3
sg23
(lp137
F22.76
aF228.9703767299652
aI2
aF0.0
asg25
(lp138
S'503_watch_sa.bag'
p139
aS'503_watch_man.bag'
p140
asg29
I1
sg30
g33
sg31
(lp141
g33
ag33
ag33
ag16
ag33
asg34
(lp142
F21.9
aF306.77406907081604
aI1
aF18.93
asg36
(lp143
S'503_phone.bag'
p144
asg39
(lp145
g33
ag33
ag17
ag33
ag17
asg41
(lp146
g17
ag33
ag33
ag33
ag16
ag33
ag16
ag33
asg43
(lp147
g132
ag140
asg45
(lp148
g144
ag131
ag132
ag139
ag129
ag140
asg47
g33
sg48
I0
sg49
g33
sg50
g33
sg51
S'/home/aransena/thesis_ws/Data/robot_testing/results/503'
p149
sg53
(lp150
g17
ag14
ag16
ag15
asg55
I3
sg56
(lp151
F21.27
aF193.3876485824585
aI0
aF25.02
asg58
I1
sg59
S'"Having to cancel your rotate command when using manual watch I found challengi'
p152
sg61
(lp153
g14
ag16
ag14
ag17
ag33
asg63
(lp154
F22.62
aF230.59352445602417
aI1
aF0.0
asg65
(lp155
g131
ag139
asg67
g14
sba(ireal_participants
participant
p156
(dp157
g3
(lp158
S'532_tablet.bag'
p159
asg6
(lp160
S'532_xbox_man.bag'
p161
aS'532_xbox_sa.bag'
p162
asg10
S'532'
p163
sg12
(lp164
g17
ag15
ag14
ag16
asg18
(lp165
F18.05
aF203.51486110687256
aI0
aF31.1
asg20
(lp166
F22.52
aF211.7410957813263
aI1
aF58.79
asg22
I3
sg23
(lp167
F19.81
aF253.27346086502075
aI1
aF1.17
asg25
(lp168
S'532_watch_man.bag'
p169
aS'532_watch_sa.bag'
p170
asg29
I1
sg30
g16
sg31
(lp171
g33
ag33
ag17
ag16
ag16
asg34
(lp172
F19.38
aF233.70374822616577
aI0
aF35.8
asg36
(lp173
S'532_phone.bag'
p174
asg39
(lp175
g16
ag17
ag16
ag33
ag33
asg41
(lp176
g33
ag33
ag14
ag16
ag33
ag33
ag16
ag33
asg43
(lp177
g169
ag161
asg45
(lp178
g169
ag161
ag159
ag174
ag170
ag162
asg47
g16
sg48
I0
sg49
g16
sg50
g16
sg51
S'/home/aransena/thesis_ws/Data/robot_testing/results/532'
p179
sg53
(lp180
g15
ag17
ag14
ag16
asg55
I2
sg56
(lp181
F18.05
aF217.82855987548828
aI0
aF20.14
asg58
I2
sg59
g60
sg61
(lp182
g14
ag14
ag17
ag17
ag33
asg63
(lp183
F19.51
aF193.50738072395325
aI0
aF0.0
asg65
(lp184
g170
ag162
asg67
g14
sba(ireal_participants
participant
p185
(dp186
g3
(lp187
S'533_tablet.bag'
p188
asg6
(lp189
S'533_xbox_man.bag'
p190
aS'533_xbox_sa.bag'
p191
asg10
S'533'
p192
sg12
(lp193
g14
ag15
ag17
ag16
asg18
(lp194
F21.67
aF238.12893557548523
aI0
aF25.92
asg20
(lp195
F22.2
aF209.5598795413971
aI0
aF0.0
asg22
I3
sg23
(lp196
F22.35
aF190.26851630210876
aI2
aF0.0
asg25
(lp197
S'533_watch_man.bag'
p198
aS'533_watch_sa.bag'
p199
asg29
I2
sg30
g33
sg31
(lp200
g16
ag16
ag16
ag17
ag14
asg34
(lp201
F22.57
aF277.4789972305298
aI1
aF88.33
asg36
(lp202
S'533_phone.bag'
p203
asg39
(lp204
g16
ag17
ag17
ag16
ag16
asg41
(lp205
g16
ag16
ag14
ag17
ag16
ag16
ag17
ag17
asg43
(lp206
g190
ag198
asg45
(lp207
g190
ag188
ag198
ag191
ag199
ag203
asg47
g16
sg48
I0
sg49
g16
sg50
g16
sg51
S'/home/aransena/thesis_ws/Data/robot_testing/results/533'
p208
sg53
(lp209
g14
ag15
ag17
ag16
asg55
I3
sg56
(lp210
F22.29
aF264.28590059280396
aI1
aF12.97
asg58
I2
sg59
g60
sg61
(lp211
g14
ag14
ag17
ag17
ag17
asg63
(lp212
F21.9
aF303.12743282318115
aI0
aF0.0
asg65
(lp213
g191
ag199
asg67
g14
sba.