(lp0
(ireal_participants
participant
p1
(dp2
S'tablet_files'
p3
(lp4
S'528_tablet.bag'
p5
asS'xbox_files'
p6
(lp7
S'528_xbox_sa.bag'
p8
aS'528_xbox_man.bag'
p9
asS'test_num'
p10
S'528'
p11
sS'post_rank_pref_sa'
p12
(lp13
S'1'
p14
aS'3'
p15
aS'2'
p16
aS'4'
p17
asS'watch_sa_data'
p18
(lp19
F22.44
aF195.94462037086487
aI0
aF19.09
asS'phone_data'
p20
(lp21
F22.01
aF242.5545153617859
aI0
aF11.73
asS'pre_ever_played'
p22
I1
sS'xbox_man_data'
p23
(lp24
F22.47
aF305.59501814842224
aI2
aF0.0
asS'watch_files'
p25
(lp26
S'528_watch_man.bag'
p27
aS'528_watch_sa.bag'
p28
asS'pre_age_range'
p29
I2
sS'post_trust'
p30
S'5'
p31
sS'pre_would_be_easy'
p32
(lp33
g31
ag31
ag17
ag17
ag31
asS'tablet_data'
p34
(lp35
F22.72
aF243.92030119895935
aI1
aF26.17
asS'phone_files'
p36
(lp37
S'528_phone.bag'
p38
asS'post_rate_challenges_sa'
p39
(lp40
g16
ag31
ag17
ag31
ag31
asS'post_ease_of_use'
p41
(lp42
g31
ag17
ag31
ag17
ag31
ag17
ag31
ag17
asS'man_files'
p43
(lp44
g27
ag9
asS'files'
p45
(lp46
g5
ag38
ag27
ag8
ag9
ag28
asS'pre_trust'
p47
g31
sS'pre_health'
p48
I0
sS'pre_ability_technology'
p49
g17
sS'pre_spatial'
p50
g31
sS'path'
p51
S'/home/aransena/thesis_ws/Data/robot_testing/results/528'
p52
sS'post_rank_pref_man'
p53
(lp54
g14
ag15
ag16
ag17
asS'pre_how_often'
p55
I2
sS'xbox_sa_data'
p56
(lp57
F21.39
aF223.55435991287231
aI0
aF21.82
asS'gender'
p58
I1
sS'post_comment'
p59
S'turning with x box controller had a speed increase. '
p60
sS'post_rate_challenges_man'
p61
(lp62
g16
ag17
ag15
ag15
ag31
asS'watch_man_data'
p63
(lp64
F21.45
aF168.83944177627563
aI0
aF0.0
asS'sa_files'
p65
(lp66
g8
ag28
asS'post_sit_stand'
p67
g16
sba(ireal_participants
participant
p68
(dp69
g3
(lp70
S'526_tablet.bag'
p71
asg6
(lp72
S'526_xbox_man.bag'
p73
aS'526_xbox_sa.bag'
p74
asg10
S'526'
p75
sg12
(lp76
g16
ag14
ag15
ag17
asg18
(lp77
F19.37
aF341.00362753868103
aI1
aF39.44
asg20
(lp78
F20.08
aF322.4304304122925
aI0
aF33.16
asg22
I1
sg23
(lp79
F20.58
aF203.2505133152008
aI0
aF0.0
asg25
(lp80
S'526_watch_sa.bag'
p81
aS'526_watch_man.bag'
p82
asg29
I4
sg30
g15
sg32
(lp83
g15
ag15
ag16
ag16
ag15
asg34
(lp84
F21.45
aF339.7582223415375
aI2
aF85.99
asg36
(lp85
S'526_phone.bag'
p86
asg39
(lp87
g31
ag15
ag31
ag31
ag31
asg41
(lp88
g31
ag17
ag15
ag15
ag31
ag31
ag17
ag17
asg43
(lp89
g73
ag82
asg45
(lp90
g86
ag71
ag73
ag74
ag81
ag82
asg47
g15
sg48
I0
sg49
g15
sg50
g17
sg51
S'/home/aransena/thesis_ws/Data/robot_testing/results/526'
p91
sg53
(lp92
g15
ag16
ag14
ag17
asg55
I1
sg56
(lp93
F21.52
aF357.3312613964081
aI1
aF29.39
asg58
I1
sg59
S''
p94
sg61
(lp95
g31
ag15
ag17
ag31
ag31
asg63
(lp96
F0.0
aF365.0136775970459
aI0
aF0.12
asg65
(lp97
g74
ag81
asg67
g16
sba(ireal_participants
participant
p98
(dp99
g3
(lp100
S'527_tablet.bag'
p101
asg6
(lp102
S'527_xbox_man.bag'
p103
aS'527_xbox_sa.bag'
p104
asg10
S'527'
p105
sg12
(lp106
g15
ag14
ag17
ag16
asg18
(lp107
F20.1
aF451.62554144859314
aI0
aF43.62
asg20
(lp108
F20.47
aF451.51624751091003
aI4
aF19.01
asg22
I1
sg23
(lp109
F24.8
aF495.2005090713501
aI3
aF0.0
asg25
(lp110
S'527_watch_man.bag'
p111
aS'527_watch_sa.bag'
p112
asg29
I4
sg30
g17
sg32
(lp113
g15
ag16
ag16
ag16
ag15
asg34
(lp114
F22.12
aF385.87744545936584
aI0
aF35.77
asg36
(lp115
S'527_phone.bag'
p116
asg39
(lp117
g17
ag17
ag17
ag17
ag17
asg41
(lp118
g17
ag31
ag16
ag15
ag15
ag17
ag16
ag15
asg43
(lp119
g103
ag111
asg45
(lp120
g103
ag111
ag101
ag112
ag116
ag104
asg47
g17
sg48
I0
sg49
g16
sg50
g17
sg51
S'/home/aransena/thesis_ws/Data/robot_testing/results/527'
p121
sg53
(lp122
g17
ag15
ag14
ag16
asg55
I1
sg56
(lp123
F21.5
aF461.6071755886078
aI3
aF14.47
asg58
I2
sg59
g94
sg61
(lp124
g15
ag17
ag17
ag17
ag17
asg63
(lp125
F21.15
aF459.1126883029938
aI0
aF0.09
asg65
(lp126
g112
ag104
asg67
g31
sba.