(lp0
(ireal_participants
participant
p1
(dp2
S'tablet_files'
p3
(lp4
S'531_tablet.bag'
p5
asS'xbox_files'
p6
(lp7
S'531_xbox_sa.bag'
p8
aS'531_xbox_man.bag'
p9
asS'test_num'
p10
S'531'
p11
sS'post_rank_pref_sa'
p12
(lp13
S'3'
p14
aS'1'
p15
aS'4'
p16
aS'2'
p17
asS'watch_sa_data'
p18
(lp19
F20.37
aF221.0676498413086
aI0
aF20.16
asS'phone_data'
p20
(lp21
F22.83
aF240.15599918365479
aI2
aF29.78
asS'pre_ever_played'
p22
I4
sS'xbox_man_data'
p23
(lp24
F20.82
aF198.48191809654236
aI0
aF0.0
asS'watch_files'
p25
(lp26
S'531_watch_man.bag'
p27
aS'531_watch_sa.bag'
p28
asS'pre_age_range'
p29
I2
sS'post_trust'
p30
S'5'
p31
sS'pre_would_be_easy'
p32
(lp33
g16
ag31
ag31
ag16
ag16
asS'tablet_data'
p34
(lp35
F20.3
aF220.7873251438141
aI0
aF49.34
asS'phone_files'
p36
(lp37
S'531_phone.bag'
p38
asS'post_rate_challenges_sa'
p39
(lp40
g31
ag31
ag31
ag31
ag31
asS'post_ease_of_use'
p41
(lp42
g31
ag31
ag16
ag16
ag16
ag16
ag31
ag31
asS'man_files'
p43
(lp44
g27
ag9
asS'files'
p45
(lp46
g27
ag38
ag8
ag9
ag5
ag28
asS'pre_trust'
p47
g31
sS'pre_health'
p48
I0
sS'pre_ability_technology'
p49
g31
sS'pre_spatial'
p50
g31
sS'path'
p51
S'/home/aransena/thesis_ws/Data/robot_testing/results/531'
p52
sS'post_rank_pref_man'
p53
(lp54
g14
ag16
ag17
ag15
asS'pre_how_often'
p55
I4
sS'xbox_sa_data'
p56
(lp57
F20.1
aF180.4177052974701
aI0
aF32.26
asS'gender'
p58
I1
sS'post_comment'
p59
S''
p60
sS'post_rate_challenges_man'
p61
(lp62
g31
ag16
ag16
ag16
ag31
asS'watch_man_data'
p63
(lp64
F20.81
aF177.29782891273499
aI0
aF0.0
asS'sa_files'
p65
(lp66
g8
ag28
asS'post_sit_stand'
p67
g17
sba(ireal_participants
participant
p68
(dp69
g3
(lp70
S'510_tablet.bag'
p71
asg6
(lp72
S'510_xbox_man.bag'
p73
aS'510_xbox_sa.bag'
p74
asg10
S'510'
p75
sg12
(lp76
g16
ag17
ag15
ag14
asg18
(lp77
F20.03
aF344.0368528366089
aI0
aF31.02
asg20
(lp78
F18.73
aF187.95448517799377
aI0
aF17.24
asg22
I4
sg23
(lp79
F20.52
aF219.64056301116943
aI1
aF0.0
asg25
(lp80
S'510_watch_sa.bag'
p81
aS'510_watch_man.bag'
p82
asg29
I1
sg30
g14
sg32
(lp83
g16
ag16
ag31
ag14
ag31
asg34
(lp84
F19.71
aF288.2473385334015
aI1
aF35.42
asg36
(lp85
S'510_phone.bag'
p86
asg39
(lp87
g31
ag14
ag31
ag31
ag31
asg41
(lp88
g16
ag16
ag31
ag31
ag14
ag14
ag14
ag14
asg43
(lp89
g73
ag82
asg45
(lp90
g81
ag73
ag82
ag86
ag74
ag71
asg47
g14
sg48
I0
sg49
g31
sg50
g31
sg51
S'/home/aransena/thesis_ws/Data/robot_testing/results/510'
p91
sg53
(lp92
g15
ag17
ag14
ag16
asg55
I5
sg56
(lp93
F20.27
aF323.95311975479126
aI1
aF21.4
asg58
I1
sg59
g60
sg61
(lp94
g14
ag14
ag17
ag14
ag31
asg63
(lp95
F19.68
aF179.34899020195007
aI0
aF0.0
asg65
(lp96
g81
ag74
asg67
g16
sba(ireal_participants
participant
p97
(dp98
g3
(lp99
S'507_tablet.bag'
p100
asg6
(lp101
S'507_xbox_sa.bag'
p102
aS'507_xbox_man.bag'
p103
asg10
S'507'
p104
sg12
(lp105
g15
ag14
ag17
ag16
asg18
(lp106
F19.26
aF312.91040897369385
aI0
aF39.62
asg20
(lp107
F22.17
aF394.16313433647156
aI0
aF72.5
asg22
I4
sg23
(lp108
F23.66
aF376.7095582485199
aI1
aF0.08
asg25
(lp109
S'507_watch_sa.bag'
p110
aS'507_watch_man.bag'
p111
asg29
I2
sg30
g14
sg32
(lp112
g31
ag31
ag14
ag16
ag16
asg34
(lp113
F21.22
aF300.0518274307251
aI1
aF58.2
asg36
(lp114
S'507_phone.bag'
p115
asg39
(lp116
g16
ag14
ag14
ag16
ag14
asg41
(lp117
g16
ag16
ag15
ag15
ag16
ag16
ag16
ag16
asg43
(lp118
g103
ag111
asg45
(lp119
g102
ag110
ag100
ag115
ag103
ag111
asg47
g17
sg48
I0
sg49
g16
sg50
g16
sg51
S'/home/aransena/thesis_ws/Data/robot_testing/results/507'
p120
sg53
(lp121
g17
ag15
ag14
ag16
asg55
I4
sg56
(lp122
F18.05
aF217.82855987548828
aI0
aF20.14
asg58
I2
sg59
g60
sg61
(lp123
g31
ag14
ag16
ag16
ag14
asg63
(lp124
F22.21
aF242.94363975524902
aI0
aF0.17
asg65
(lp125
g102
ag110
asg67
g17
sba(ireal_participants
participant
p126
(dp127
g3
(lp128
S'506_tablet.bag'
p129
asg6
(lp130
S'506_xbox_sa.bag'
p131
aS'506_xbox_man.bag'
p132
asg10
S'506'
p133
sg12
(lp134
g16
ag17
ag14
ag31
asg18
(lp135
F19.35
aF252.76305985450745
aI0
aF55.25
asg20
(lp136
F24.09
aF413.41479873657227
aI2
aF23.22
asg22
I4
sg23
(lp137
F21.1
aF193.40440702438354
aI0
aF0.0
asg25
(lp138
S'506_watch_sa.bag'
p139
aS'506_watch_man.bag'
p140
asg29
I1
sg30
g14
sg32
(lp141
g31
ag31
ag31
ag16
ag31
asg34
(lp142
F19.58
aF270.28555941581726
aI0
aF75.05
asg36
(lp143
S'506_phone.bag'
p144
asg39
(lp145
g16
ag16
ag17
ag14
ag15
asg41
(lp146
g17
ag14
ag14
ag16
ag14
ag16
ag14
ag16
asg43
(lp147
g132
ag140
asg45
(lp148
g139
ag144
ag129
ag131
ag132
ag140
asg47
g14
sg48
I0
sg49
g31
sg50
g16
sg51
S'/home/aransena/thesis_ws/Data/robot_testing/results/506'
p149
sg53
(lp150
g14
ag17
ag16
ag15
asg55
I4
sg56
(lp151
F21.99
aF276.92030787467957
aI0
aF4.88
asg58
I1
sg59
S'Manually controlling the robot with the smart watch was the biggest challenge.'
p152
sg61
(lp153
g14
ag17
ag16
ag14
ag16
asg63
(lp154
F0.0
aF383.1185462474823
aI1
aF0.0
asg65
(lp155
g139
ag131
asg67
g14
sba(ireal_participants
participant
p156
(dp157
g3
(lp158
S'512_tablet.bag'
p159
asg6
(lp160
S'512_xbox_sa.bag'
p161
aS'512_xbox_man.bag'
p162
asg10
S'512'
p163
sg12
(lp164
g16
ag17
ag15
ag14
asg18
(lp165
F22.16
aF211.49760270118713
aI0
aF23.42
asg20
(lp166
F23.04
aF231.1470103263855
aI1
aF53.87
asg22
I4
sg23
(lp167
F20.93
aF177.13793277740479
aI0
aF0.0
asg25
(lp168
S'512_watch_sa.bag'
p169
aS'512_watch_man.bag'
p170
asg29
I2
sg30
g31
sg32
(lp171
g31
ag31
ag31
ag31
ag31
asg34
(lp172
F22.01
aF260.3735156059265
aI0
aF29.97
asg36
(lp173
S'512_phone.bag'
p174
asg39
(lp175
g16
ag15
ag17
ag31
ag14
asg41
(lp176
g31
ag31
ag31
ag31
ag31
ag31
ag31
ag31
asg43
(lp177
g162
ag170
asg45
(lp178
g159
ag169
ag174
ag161
ag162
ag170
asg47
g31
sg48
I0
sg49
g16
sg50
g31
sg51
S'/home/aransena/thesis_ws/Data/robot_testing/results/512'
p179
sg53
(lp180
g17
ag16
ag14
ag15
asg55
I3
sg56
(lp181
F21.24
aF187.82772660255432
aI0
aF17.42
asg58
I1
sg59
S'Na'
p182
sg61
(lp183
g16
ag15
ag17
ag31
ag14
asg63
(lp184
F21.32
aF191.51208782196045
aI1
aF0.0
asg65
(lp185
g169
ag161
asg67
g14
sba.