(lp0
(ireal_participants
participant
p1
(dp2
S'tablet_files'
p3
(lp4
S'504_tablet.bag'
p5
asS'xbox_files'
p6
(lp7
S'504_xbox_sa.bag'
p8
aS'504_xbox_man.bag'
p9
asS'test_num'
p10
S'504'
p11
sS'post_rank_pref_sa'
p12
(lp13
S'2'
p14
aS'3'
p15
aS'1'
p16
aS'4'
p17
asS'watch_sa_data'
p18
(lp19
F23.23
aF386.15240931510925
aI2
aF24.76
asS'phone_data'
p20
(lp21
F20.63
aF349.38336086273193
aI6
aF31.38
asS'pre_ever_played'
p22
I2
sS'xbox_man_data'
p23
(lp24
F20.68
aF237.86830639839172
aI0
aF0.0
asS'watch_files'
p25
(lp26
S'504_watch_man.bag'
p27
aS'504_watch_sa.bag'
p28
asS'pre_age_range'
p29
I3
sS'post_trust'
p30
g17
sS'pre_would_be_easy'
p31
(lp32
g17
ag17
ag14
ag15
ag17
asS'tablet_data'
p33
(lp34
F19.85
aF374.5381851196289
aI0
aF22.8
asS'phone_files'
p35
(lp36
S'504_phone.bag'
p37
asS'post_rate_challenges_sa'
p38
(lp39
g15
ag16
ag14
aS'5'
p40
ag17
asS'post_ease_of_use'
p41
(lp42
g15
ag14
ag15
ag14
ag15
ag15
ag17
ag17
asS'man_files'
p43
(lp44
g27
ag9
asS'files'
p45
(lp46
g5
ag8
ag27
ag37
ag9
ag28
asS'pre_trust'
p47
g17
sS'pre_health'
p48
I1
sS'pre_ability_technology'
p49
g17
sS'pre_spatial'
p50
g17
sS'path'
p51
S'/home/aransena/thesis_ws/Data/robot_testing/results/504'
p52
sS'post_rank_pref_man'
p53
(lp54
g17
ag16
ag14
ag15
asS'pre_how_often'
p55
I2
sS'xbox_sa_data'
p56
(lp57
F20.3
aF292.56960892677307
aI1
aF10.45
asS'gender'
p58
I1
sS'post_comment'
p59
S''
p60
sS'post_rate_challenges_man'
p61
(lp62
g40
ag14
ag16
ag15
ag17
asS'watch_man_data'
p63
(lp64
F21.51
aF237.6772050857544
aI3
aF0.0
asS'sa_files'
p65
(lp66
g8
ag28
asS'post_sit_stand'
p67
g16
sba(ireal_participants
participant
p68
(dp69
g3
(lp70
S'511_tablet.bag'
p71
asg6
(lp72
S'511_xbox_man.bag'
p73
aS'511_xbox_sa.bag'
p74
asg10
S'511'
p75
sg12
(lp76
g14
ag17
ag15
ag16
asg18
(lp77
F19.48
aF270.5371198654175
aI0
aF39.17
asg20
(lp78
F20.13
aF176.0304307937622
aI1
aF9.01
asg22
I2
sg23
(lp79
F19.25
aF164.03920316696167
aI0
aF0.0
asg25
(lp80
S'511_watch_man.bag'
p81
aS'511_watch_sa.bag'
p82
asg29
I2
sg30
g15
sg31
(lp83
g17
ag17
ag40
ag15
ag40
asg33
(lp84
F18.21
aF188.1677324771881
aI0
aF56.8
asg35
(lp85
S'511_phone.bag'
p86
asg38
(lp87
g40
ag17
ag17
ag14
ag17
asg41
(lp88
g15
ag17
ag40
ag40
ag17
ag17
ag15
ag17
asg43
(lp89
g73
ag81
asg45
(lp90
g73
ag74
ag71
ag86
ag81
ag82
asg47
g15
sg48
I0
sg49
g40
sg50
g17
sg51
S'/home/aransena/thesis_ws/Data/robot_testing/results/511'
p91
sg53
(lp92
g15
ag14
ag17
ag16
asg55
I3
sg56
(lp93
F20.3
aF225.88768649101257
aI1
aF0.0
asg58
I1
sg59
g60
sg61
(lp94
g40
ag17
ag15
ag14
ag15
asg63
(lp95
F20.08
aF214.44025874137878
aI0
aF0.14
asg65
(lp96
g74
ag82
asg67
g15
sba(ireal_participants
participant
p97
(dp98
g3
(lp99
S'530_tablet.bag'
p100
asg6
(lp101
S'530_xbox_sa.bag'
p102
aS'530_xbox_man.bag'
p103
asg10
S'530'
p104
sg12
(lp105
g14
ag15
ag16
ag17
asg18
(lp106
F20.49
aF262.6713593006134
aI0
aF38.2
asg20
(lp107
F20.04
aF286.7726962566376
aI0
aF49.69
asg22
I2
sg23
(lp108
F21.02
aF177.25406336784363
aI0
aF0.0
asg25
(lp109
S'530_watch_sa.bag'
p110
aS'530_watch_man.bag'
p111
asg29
I1
sg30
g40
sg31
(lp112
g40
ag40
ag40
ag40
ag40
asg33
(lp113
F20.13
aF251.78590774536133
aI0
aF52.0
asg35
(lp114
S'530_phone.bag'
p115
asg38
(lp116
g40
ag40
ag40
ag40
ag40
asg41
(lp117
g40
ag17
ag40
ag17
ag40
ag40
ag40
ag40
asg43
(lp118
g103
ag111
asg45
(lp119
g110
ag102
ag115
ag100
ag103
ag111
asg47
g40
sg48
I0
sg49
g17
sg50
g17
sg51
S'/home/aransena/thesis_ws/Data/robot_testing/results/530'
p120
sg53
(lp121
g17
ag15
ag16
ag14
asg55
I2
sg56
(lp122
F21.29
aF273.7697904109955
aI0
aF29.67
asg58
I1
sg59
S'Difficulty turning on the spot without moving forward/backward when not using watch'
p123
sg61
(lp124
g17
ag17
ag17
ag17
ag17
asg63
(lp125
F21.03
aF170.80404233932495
aI0
aF0.0
asg65
(lp126
g110
ag102
asg67
g14
sba(ireal_participants
participant
p127
(dp128
g3
(lp129
S'513_tablet.bag'
p130
asg6
(lp131
S'513_xbox_man.bag'
p132
aS'513_xbox_sa.bag'
p133
asg10
S'513'
p134
sg12
(lp135
g17
ag16
ag15
ag14
asg18
(lp136
F22.09
aF310.7042489051819
aI0
aF33.16
asg20
(lp137
F23.27
aF267.5930006504059
aI1
aF20.84
asg22
I2
sg23
(lp138
F21.95
aF176.53118658065796
aI0
aF0.0
asg25
(lp139
S'513_watch_sa.bag'
p140
aS'513_watch_man.bag'
p141
asg29
I2
sg30
g40
sg31
(lp142
g40
ag40
ag40
ag17
ag40
asg33
(lp143
F22.94
aF279.46274995803833
aI1
aF0.0
asg35
(lp144
S'513_phone.bag'
p145
asg38
(lp146
g15
ag17
ag15
ag17
ag16
asg41
(lp147
g17
ag40
ag17
ag17
ag15
ag15
ag17
ag17
asg43
(lp148
g132
ag141
asg45
(lp149
g132
ag140
ag145
ag141
ag133
ag130
asg47
g17
sg48
I0
sg49
g17
sg50
g17
sg51
S'/home/aransena/thesis_ws/Data/robot_testing/results/513'
p150
sg53
(lp151
g15
ag17
ag16
ag14
asg55
I2
sg56
(lp152
F21.42
aF303.273579120636
aI2
aF21.04
asg58
I1
sg59
g60
sg61
(lp153
g14
ag15
ag14
ag15
ag17
asg63
(lp154
F21.84
aF204.02653408050537
aI1
aF0.2
asg65
(lp155
g140
ag133
asg67
g14
sba(ireal_participants
participant
p156
(dp157
g3
(lp158
S'529_tablet.bag'
p159
asg6
(lp160
S'529_xbox_man.bag'
p161
aS'529_xbox_sa.bag'
p162
asg10
S'529'
p163
sg18
(lp164
F22.53
aF339.49237632751465
aI0
aF33.12
asg20
(lp165
F18.57
aF258.95931363105774
aI2
aF31.0
asg22
I2
sg23
(lp166
F19.34
aF257.0540211200714
aI1
aF0.0
asg25
(lp167
S'529_watch_sa.bag'
p168
aS'529_watch_man.bag'
p169
asg29
I2
sg31
(lp170
g40
ag40
ag17
ag14
ag40
asg33
(lp171
F19.14
aF227.5215404033661
aI0
aF39.41
asg35
(lp172
S'529_phone.bag'
p173
asg43
(lp174
g161
ag169
asg45
(lp175
g173
ag161
ag168
ag159
ag169
ag162
asg47
g15
sg48
I0
sg49
g40
sg50
g17
sg51
S'/home/aransena/thesis_ws/Data/robot_testing/results/529'
p176
sg55
I2
sg56
(lp177
F18.56
aF216.68525552749634
aI0
aF30.73
asg58
I1
sg63
(lp178
F21.19
aF204.18781733512878
aI0
aF0.0
asg65
(lp179
g168
ag162
asba.