(lp0
(ireal_participants
participant
p1
(dp2
S'tablet_files'
p3
(lp4
S'506_tablet.bag'
p5
asS'xbox_files'
p6
(lp7
S'506_xbox_sa.bag'
p8
aS'506_xbox_man.bag'
p9
asS'test_num'
p10
S'506'
p11
sS'post_rank_pref_sa'
p12
(lp13
S'4'
p14
aS'2'
p15
aS'3'
p16
aS'5'
p17
asS'watch_sa_data'
p18
(lp19
F19.35
aF252.76305985450745
aI0
aF55.25
asS'phone_data'
p20
(lp21
F24.09
aF413.41479873657227
aI2
aF23.22
asS'pre_ever_played'
p22
I4
sS'xbox_man_data'
p23
(lp24
F21.1
aF193.40440702438354
aI0
aF0.0
asS'watch_files'
p25
(lp26
S'506_watch_sa.bag'
p27
aS'506_watch_man.bag'
p28
asS'pre_age_range'
p29
I1
sS'post_trust'
p30
g16
sS'pre_would_be_easy'
p31
(lp32
g17
ag17
ag17
ag14
ag17
asS'tablet_data'
p33
(lp34
F19.58
aF270.28555941581726
aI0
aF75.05
asS'phone_files'
p35
(lp36
S'506_phone.bag'
p37
asS'post_rate_challenges_sa'
p38
(lp39
g14
ag14
ag15
ag16
aS'1'
p40
asS'post_ease_of_use'
p41
(lp42
g15
ag16
ag16
ag14
ag16
ag14
ag16
ag14
asS'man_files'
p43
(lp44
g9
ag28
asS'files'
p45
(lp46
g27
ag37
ag5
ag8
ag9
ag28
asS'pre_trust'
p47
g16
sS'pre_health'
p48
I0
sS'pre_ability_technology'
p49
g17
sS'pre_spatial'
p50
g14
sS'path'
p51
S'/home/aransena/thesis_ws/Data/robot_testing/results/506'
p52
sS'post_rank_pref_man'
p53
(lp54
g16
ag15
ag14
ag40
asS'pre_how_often'
p55
I4
sS'xbox_sa_data'
p56
(lp57
F21.99
aF276.92030787467957
aI0
aF4.88
asS'gender'
p58
I1
sS'post_comment'
p59
S'Manually controlling the robot with the smart watch was the biggest challenge.'
p60
sS'post_rate_challenges_man'
p61
(lp62
g16
ag15
ag14
ag16
ag14
asS'watch_man_data'
p63
(lp64
F0.0
aF383.1185462474823
aI1
aF0.0
asS'sa_files'
p65
(lp66
g27
ag8
asS'post_sit_stand'
p67
g16
sba(ireal_participants
participant
p68
(dp69
g3
(lp70
S'504_tablet.bag'
p71
asg6
(lp72
S'504_xbox_sa.bag'
p73
aS'504_xbox_man.bag'
p74
asg10
S'504'
p75
sg12
(lp76
g15
ag16
ag40
ag14
asg18
(lp77
F23.23
aF386.15240931510925
aI2
aF24.76
asg20
(lp78
F20.63
aF349.38336086273193
aI6
aF31.38
asg22
I2
sg23
(lp79
F20.68
aF237.86830639839172
aI0
aF0.0
asg25
(lp80
S'504_watch_man.bag'
p81
aS'504_watch_sa.bag'
p82
asg29
I3
sg30
g14
sg31
(lp83
g14
ag14
ag15
ag16
ag14
asg33
(lp84
F19.85
aF374.5381851196289
aI0
aF22.8
asg35
(lp85
S'504_phone.bag'
p86
asg38
(lp87
g16
ag40
ag15
ag17
ag14
asg41
(lp88
g16
ag15
ag16
ag15
ag16
ag16
ag14
ag14
asg43
(lp89
g81
ag74
asg45
(lp90
g71
ag73
ag81
ag86
ag74
ag82
asg47
g14
sg48
I1
sg49
g14
sg50
g14
sg51
S'/home/aransena/thesis_ws/Data/robot_testing/results/504'
p91
sg53
(lp92
g14
ag40
ag15
ag16
asg55
I2
sg56
(lp93
F20.3
aF292.56960892677307
aI1
aF10.45
asg58
I1
sg59
S''
p94
sg61
(lp95
g17
ag15
ag40
ag16
ag14
asg63
(lp96
F21.51
aF237.6772050857544
aI3
aF0.0
asg65
(lp97
g73
ag82
asg67
g40
sba(ireal_participants
participant
p98
(dp99
g3
(lp100
S'511_tablet.bag'
p101
asg6
(lp102
S'511_xbox_man.bag'
p103
aS'511_xbox_sa.bag'
p104
asg10
S'511'
p105
sg12
(lp106
g15
ag14
ag16
ag40
asg18
(lp107
F19.48
aF270.5371198654175
aI0
aF39.17
asg20
(lp108
F20.13
aF176.0304307937622
aI1
aF9.01
asg22
I2
sg23
(lp109
F19.25
aF164.03920316696167
aI0
aF0.0
asg25
(lp110
S'511_watch_man.bag'
p111
aS'511_watch_sa.bag'
p112
asg29
I2
sg30
g16
sg31
(lp113
g14
ag14
ag17
ag16
ag17
asg33
(lp114
F18.21
aF188.1677324771881
aI0
aF56.8
asg35
(lp115
S'511_phone.bag'
p116
asg38
(lp117
g17
ag14
ag14
ag15
ag14
asg41
(lp118
g16
ag14
ag17
ag17
ag14
ag14
ag16
ag14
asg43
(lp119
g103
ag111
asg45
(lp120
g103
ag104
ag101
ag116
ag111
ag112
asg47
g16
sg48
I0
sg49
g17
sg50
g14
sg51
S'/home/aransena/thesis_ws/Data/robot_testing/results/511'
p121
sg53
(lp122
g16
ag15
ag14
ag40
asg55
I3
sg56
(lp123
F20.3
aF225.88768649101257
aI1
aF0.0
asg58
I1
sg59
g94
sg61
(lp124
g17
ag14
ag16
ag15
ag16
asg63
(lp125
F20.08
aF214.44025874137878
aI0
aF0.14
asg65
(lp126
g104
ag112
asg67
g16
sba(ireal_participants
participant
p127
(dp128
g3
(lp129
S'530_tablet.bag'
p130
asg6
(lp131
S'530_xbox_sa.bag'
p132
aS'530_xbox_man.bag'
p133
asg10
S'530'
p134
sg12
(lp135
g15
ag16
ag40
ag14
asg18
(lp136
F20.49
aF262.6713593006134
aI0
aF38.2
asg20
(lp137
F20.04
aF286.7726962566376
aI0
aF49.69
asg22
I2
sg23
(lp138
F21.02
aF177.25406336784363
aI0
aF0.0
asg25
(lp139
S'530_watch_sa.bag'
p140
aS'530_watch_man.bag'
p141
asg29
I1
sg30
g17
sg31
(lp142
g17
ag17
ag17
ag17
ag17
asg33
(lp143
F20.13
aF251.78590774536133
aI0
aF52.0
asg35
(lp144
S'530_phone.bag'
p145
asg38
(lp146
g17
ag17
ag17
ag17
ag17
asg41
(lp147
g17
ag14
ag17
ag14
ag17
ag17
ag17
ag17
asg43
(lp148
g133
ag141
asg45
(lp149
g140
ag132
ag145
ag130
ag133
ag141
asg47
g17
sg48
I0
sg49
g14
sg50
g14
sg51
S'/home/aransena/thesis_ws/Data/robot_testing/results/530'
p150
sg53
(lp151
g14
ag16
ag40
ag15
asg55
I2
sg56
(lp152
F21.29
aF273.7697904109955
aI0
aF29.67
asg58
I1
sg59
S'Difficulty turning on the spot without moving forward/backward when not using watch'
p153
sg61
(lp154
g14
ag14
ag14
ag14
ag14
asg63
(lp155
F21.03
aF170.80404233932495
aI0
aF0.0
asg65
(lp156
g140
ag132
asg67
g15
sba(ireal_participants
participant
p157
(dp158
g3
(lp159
S'513_tablet.bag'
p160
asg6
(lp161
S'513_xbox_man.bag'
p162
aS'513_xbox_sa.bag'
p163
asg10
S'513'
p164
sg12
(lp165
g14
ag40
ag16
ag15
asg18
(lp166
F22.09
aF310.7042489051819
aI0
aF33.16
asg20
(lp167
F23.27
aF267.5930006504059
aI1
aF20.84
asg22
I2
sg23
(lp168
F21.95
aF176.53118658065796
aI0
aF0.0
asg25
(lp169
S'513_watch_sa.bag'
p170
aS'513_watch_man.bag'
p171
asg29
I2
sg30
g17
sg31
(lp172
g17
ag17
ag17
ag14
ag17
asg33
(lp173
F22.94
aF279.46274995803833
aI1
aF0.0
asg35
(lp174
S'513_phone.bag'
p175
asg38
(lp176
g16
ag14
ag16
ag14
ag40
asg41
(lp177
g14
ag17
ag14
ag14
ag16
ag16
ag14
ag14
asg43
(lp178
g162
ag171
asg45
(lp179
g162
ag170
ag175
ag171
ag163
ag160
asg47
g14
sg48
I0
sg49
g14
sg50
g14
sg51
S'/home/aransena/thesis_ws/Data/robot_testing/results/513'
p180
sg53
(lp181
g16
ag14
ag40
ag15
asg55
I2
sg56
(lp182
F21.42
aF303.273579120636
aI2
aF21.04
asg58
I1
sg59
g94
sg61
(lp183
g15
ag16
ag15
ag16
ag14
asg63
(lp184
F21.84
aF204.02653408050537
aI1
aF0.2
asg65
(lp185
g170
ag163
asg67
g15
sba(ireal_participants
participant
p186
(dp187
g3
(lp188
S'526_tablet.bag'
p189
asg6
(lp190
S'526_xbox_man.bag'
p191
aS'526_xbox_sa.bag'
p192
asg10
S'526'
p193
sg12
(lp194
g15
ag40
ag16
ag14
asg18
(lp195
F19.37
aF341.00362753868103
aI1
aF39.44
asg20
(lp196
F20.08
aF322.4304304122925
aI0
aF33.16
asg22
I1
sg23
(lp197
F20.58
aF203.2505133152008
aI0
aF0.0
asg25
(lp198
S'526_watch_sa.bag'
p199
aS'526_watch_man.bag'
p200
asg29
I4
sg30
g16
sg31
(lp201
g16
ag16
ag15
ag15
ag16
asg33
(lp202
F21.45
aF339.7582223415375
aI2
aF85.99
asg35
(lp203
S'526_phone.bag'
p204
asg38
(lp205
g17
ag16
ag17
ag17
ag17
asg41
(lp206
g17
ag14
ag16
ag16
ag17
ag17
ag14
ag14
asg43
(lp207
g191
ag200
asg45
(lp208
g204
ag189
ag191
ag192
ag199
ag200
asg47
g16
sg48
I0
sg49
g16
sg50
g14
sg51
S'/home/aransena/thesis_ws/Data/robot_testing/results/526'
p209
sg53
(lp210
g16
ag15
ag40
ag14
asg55
I1
sg56
(lp211
F21.52
aF357.3312613964081
aI1
aF29.39
asg58
I1
sg59
g94
sg61
(lp212
g17
ag16
ag14
ag17
ag17
asg63
(lp213
F0.0
aF365.0136775970459
aI0
aF0.12
asg65
(lp214
g192
ag199
asg67
g15
sba(ireal_participants
participant
p215
(dp216
g3
(lp217
S'529_tablet.bag'
p218
asg6
(lp219
S'529_xbox_man.bag'
p220
aS'529_xbox_sa.bag'
p221
asg10
S'529'
p222
sg18
(lp223
F22.53
aF339.49237632751465
aI0
aF33.12
asg20
(lp224
F18.57
aF258.95931363105774
aI2
aF31.0
asg22
I2
sg23
(lp225
F19.34
aF257.0540211200714
aI1
aF0.0
asg25
(lp226
S'529_watch_sa.bag'
p227
aS'529_watch_man.bag'
p228
asg29
I2
sg31
(lp229
g17
ag17
ag14
ag15
ag17
asg33
(lp230
F19.14
aF227.5215404033661
aI0
aF39.41
asg35
(lp231
S'529_phone.bag'
p232
asg43
(lp233
g220
ag228
asg45
(lp234
g232
ag220
ag227
ag218
ag228
ag221
asg47
g16
sg48
I0
sg49
g17
sg50
g14
sg51
S'/home/aransena/thesis_ws/Data/robot_testing/results/529'
p235
sg55
I2
sg56
(lp236
F18.56
aF216.68525552749634
aI0
aF30.73
asg58
I1
sg63
(lp237
F21.19
aF204.18781733512878
aI0
aF0.0
asg65
(lp238
g227
ag221
asba.