(lp0
(ireal_participants
participant
p1
(dp2
S'tablet_files'
p3
(lp4
S'531_tablet.bag'
p5
asS'xbox_files'
p6
(lp7
S'531_xbox_sa.bag'
p8
aS'531_xbox_man.bag'
p9
asS'test_num'
p10
S'531'
p11
sS'post_rank_pref_sa'
p12
(lp13
S'3'
p14
aS'1'
p15
aS'4'
p16
aS'2'
p17
asS'watch_sa_data'
p18
(lp19
F20.37
aF221.0676498413086
aI0
aF20.16
asS'phone_data'
p20
(lp21
F22.83
aF240.15599918365479
aI2
aF29.78
asS'pre_ever_played'
p22
I4
sS'xbox_man_data'
p23
(lp24
F20.82
aF198.48191809654236
aI0
aF0.0
asS'watch_files'
p25
(lp26
S'531_watch_man.bag'
p27
aS'531_watch_sa.bag'
p28
asS'pre_age_range'
p29
I2
sS'post_trust'
p30
S'5'
p31
sS'pre_would_be_easy'
p32
(lp33
g16
ag31
ag31
ag16
ag16
asS'tablet_data'
p34
(lp35
F20.3
aF220.7873251438141
aI0
aF49.34
asS'phone_files'
p36
(lp37
S'531_phone.bag'
p38
asS'post_rate_challenges_sa'
p39
(lp40
g31
ag31
ag31
ag31
ag31
asS'post_ease_of_use'
p41
(lp42
g31
ag31
ag16
ag16
ag16
ag16
ag31
ag31
asS'man_files'
p43
(lp44
g27
ag9
asS'files'
p45
(lp46
g27
ag38
ag8
ag9
ag5
ag28
asS'pre_trust'
p47
g31
sS'pre_health'
p48
I0
sS'pre_ability_technology'
p49
g31
sS'pre_spatial'
p50
g31
sS'path'
p51
S'/home/aransena/thesis_ws/Data/robot_testing/results/531'
p52
sS'post_rank_pref_man'
p53
(lp54
g14
ag16
ag17
ag15
asS'pre_how_often'
p55
I4
sS'xbox_sa_data'
p56
(lp57
F20.1
aF180.4177052974701
aI0
aF32.26
asS'gender'
p58
I1
sS'post_comment'
p59
S''
p60
sS'post_rate_challenges_man'
p61
(lp62
g31
ag16
ag16
ag16
ag31
asS'watch_man_data'
p63
(lp64
F20.81
aF177.29782891273499
aI0
aF0.0
asS'sa_files'
p65
(lp66
g8
ag28
asS'post_sit_stand'
p67
g17
sba(ireal_participants
participant
p68
(dp69
g3
(lp70
S'510_tablet.bag'
p71
asg6
(lp72
S'510_xbox_man.bag'
p73
aS'510_xbox_sa.bag'
p74
asg10
S'510'
p75
sg12
(lp76
g16
ag17
ag15
ag14
asg18
(lp77
F20.03
aF344.0368528366089
aI0
aF31.02
asg20
(lp78
F18.73
aF187.95448517799377
aI0
aF17.24
asg22
I4
sg23
(lp79
F20.52
aF219.64056301116943
aI1
aF0.0
asg25
(lp80
S'510_watch_sa.bag'
p81
aS'510_watch_man.bag'
p82
asg29
I1
sg30
g14
sg32
(lp83
g16
ag16
ag31
ag14
ag31
asg34
(lp84
F19.71
aF288.2473385334015
aI1
aF35.42
asg36
(lp85
S'510_phone.bag'
p86
asg39
(lp87
g31
ag14
ag31
ag31
ag31
asg41
(lp88
g16
ag16
ag31
ag31
ag14
ag14
ag14
ag14
asg43
(lp89
g73
ag82
asg45
(lp90
g81
ag73
ag82
ag86
ag74
ag71
asg47
g14
sg48
I0
sg49
g31
sg50
g31
sg51
S'/home/aransena/thesis_ws/Data/robot_testing/results/510'
p91
sg53
(lp92
g15
ag17
ag14
ag16
asg55
I5
sg56
(lp93
F20.27
aF323.95311975479126
aI1
aF21.4
asg58
I1
sg59
g60
sg61
(lp94
g14
ag14
ag17
ag14
ag31
asg63
(lp95
F19.68
aF179.34899020195007
aI0
aF0.0
asg65
(lp96
g81
ag74
asg67
g16
sba(ireal_participants
participant
p97
(dp98
g3
(lp99
S'522_tablet.bag'
p100
asg6
(lp101
S'522_xbox_sa.bag'
p102
aS'522_xbox_man.bag'
p103
asg10
S'522'
p104
sg12
(lp105
g15
ag16
ag17
ag14
asg18
(lp106
F11.75
aF198.63783288002014
aI0
aF45.44
asg20
(lp107
F19.67
aF251.5414571762085
aI3
aF54.48
asg22
I3
sg23
(lp108
F21.9
aF229.3459529876709
aI3
aF0.0
asg25
(lp109
S'522_watch_man.bag'
p110
aS'522_watch_sa.bag'
p111
asg29
I4
sg30
g16
sg32
(lp112
g31
ag31
ag14
ag16
ag31
asg34
(lp113
F21.81
aF245.41741704940796
aI3
aF50.43
asg36
(lp114
S'522_phone.bag'
p115
asg39
(lp116
g31
ag16
ag16
ag14
ag17
asg41
(lp117
g15
ag17
ag14
ag16
ag16
ag31
ag16
ag31
asg43
(lp118
g110
ag103
asg45
(lp119
g110
ag111
ag102
ag103
ag100
ag115
asg47
g16
sg48
I0
sg49
g31
sg50
g31
sg51
S'/home/aransena/thesis_ws/Data/robot_testing/results/522'
p120
sg53
(lp121
g17
ag15
ag16
ag14
asg55
I4
sg56
(lp122
F22.47
aF258.32990312576294
aI0
aF39.65
asg58
I1
sg59
g60
sg61
(lp123
g31
ag17
ag17
ag14
ag17
asg63
(lp124
F21.54
aF287.22557377815247
aI0
aF0.0
asg65
(lp125
g111
ag102
asg67
g14
sba(ireal_participants
participant
p126
(dp127
g3
(lp128
S'506_tablet.bag'
p129
asg6
(lp130
S'506_xbox_sa.bag'
p131
aS'506_xbox_man.bag'
p132
asg10
S'506'
p133
sg12
(lp134
g16
ag17
ag14
ag31
asg18
(lp135
F19.35
aF252.76305985450745
aI0
aF55.25
asg20
(lp136
F24.09
aF413.41479873657227
aI2
aF23.22
asg22
I4
sg23
(lp137
F21.1
aF193.40440702438354
aI0
aF0.0
asg25
(lp138
S'506_watch_sa.bag'
p139
aS'506_watch_man.bag'
p140
asg29
I1
sg30
g14
sg32
(lp141
g31
ag31
ag31
ag16
ag31
asg34
(lp142
F19.58
aF270.28555941581726
aI0
aF75.05
asg36
(lp143
S'506_phone.bag'
p144
asg39
(lp145
g16
ag16
ag17
ag14
ag15
asg41
(lp146
g17
ag14
ag14
ag16
ag14
ag16
ag14
ag16
asg43
(lp147
g132
ag140
asg45
(lp148
g139
ag144
ag129
ag131
ag132
ag140
asg47
g14
sg48
I0
sg49
g31
sg50
g16
sg51
S'/home/aransena/thesis_ws/Data/robot_testing/results/506'
p149
sg53
(lp150
g14
ag17
ag16
ag15
asg55
I4
sg56
(lp151
F21.99
aF276.92030787467957
aI0
aF4.88
asg58
I1
sg59
S'Manually controlling the robot with the smart watch was the biggest challenge.'
p152
sg61
(lp153
g14
ag17
ag16
ag14
ag16
asg63
(lp154
F0.0
aF383.1185462474823
aI1
aF0.0
asg65
(lp155
g139
ag131
asg67
g14
sba(ireal_participants
participant
p156
(dp157
g3
(lp158
S'504_tablet.bag'
p159
asg6
(lp160
S'504_xbox_sa.bag'
p161
aS'504_xbox_man.bag'
p162
asg10
S'504'
p163
sg12
(lp164
g17
ag14
ag15
ag16
asg18
(lp165
F23.23
aF386.15240931510925
aI2
aF24.76
asg20
(lp166
F20.63
aF349.38336086273193
aI6
aF31.38
asg22
I2
sg23
(lp167
F20.68
aF237.86830639839172
aI0
aF0.0
asg25
(lp168
S'504_watch_man.bag'
p169
aS'504_watch_sa.bag'
p170
asg29
I3
sg30
g16
sg32
(lp171
g16
ag16
ag17
ag14
ag16
asg34
(lp172
F19.85
aF374.5381851196289
aI0
aF22.8
asg36
(lp173
S'504_phone.bag'
p174
asg39
(lp175
g14
ag15
ag17
ag31
ag16
asg41
(lp176
g14
ag17
ag14
ag17
ag14
ag14
ag16
ag16
asg43
(lp177
g169
ag162
asg45
(lp178
g159
ag161
ag169
ag174
ag162
ag170
asg47
g16
sg48
I1
sg49
g16
sg50
g16
sg51
S'/home/aransena/thesis_ws/Data/robot_testing/results/504'
p179
sg53
(lp180
g16
ag15
ag17
ag14
asg55
I2
sg56
(lp181
F20.3
aF292.56960892677307
aI1
aF10.45
asg58
I1
sg59
g60
sg61
(lp182
g31
ag17
ag15
ag14
ag16
asg63
(lp183
F21.51
aF237.6772050857544
aI3
aF0.0
asg65
(lp184
g161
ag170
asg67
g15
sba(ireal_participants
participant
p185
(dp186
g3
(lp187
S'511_tablet.bag'
p188
asg6
(lp189
S'511_xbox_man.bag'
p190
aS'511_xbox_sa.bag'
p191
asg10
S'511'
p192
sg12
(lp193
g17
ag16
ag14
ag15
asg18
(lp194
F19.48
aF270.5371198654175
aI0
aF39.17
asg20
(lp195
F20.13
aF176.0304307937622
aI1
aF9.01
asg22
I2
sg23
(lp196
F19.25
aF164.03920316696167
aI0
aF0.0
asg25
(lp197
S'511_watch_man.bag'
p198
aS'511_watch_sa.bag'
p199
asg29
I2
sg30
g14
sg32
(lp200
g16
ag16
ag31
ag14
ag31
asg34
(lp201
F18.21
aF188.1677324771881
aI0
aF56.8
asg36
(lp202
S'511_phone.bag'
p203
asg39
(lp204
g31
ag16
ag16
ag17
ag16
asg41
(lp205
g14
ag16
ag31
ag31
ag16
ag16
ag14
ag16
asg43
(lp206
g190
ag198
asg45
(lp207
g190
ag191
ag188
ag203
ag198
ag199
asg47
g14
sg48
I0
sg49
g31
sg50
g16
sg51
S'/home/aransena/thesis_ws/Data/robot_testing/results/511'
p208
sg53
(lp209
g14
ag17
ag16
ag15
asg55
I3
sg56
(lp210
F20.3
aF225.88768649101257
aI1
aF0.0
asg58
I1
sg59
g60
sg61
(lp211
g31
ag16
ag14
ag17
ag14
asg63
(lp212
F20.08
aF214.44025874137878
aI0
aF0.14
asg65
(lp213
g191
ag199
asg67
g14
sba(ireal_participants
participant
p214
(dp215
g3
(lp216
S'530_tablet.bag'
p217
asg6
(lp218
S'530_xbox_sa.bag'
p219
aS'530_xbox_man.bag'
p220
asg10
S'530'
p221
sg12
(lp222
g17
ag14
ag15
ag16
asg18
(lp223
F20.49
aF262.6713593006134
aI0
aF38.2
asg20
(lp224
F20.04
aF286.7726962566376
aI0
aF49.69
asg22
I2
sg23
(lp225
F21.02
aF177.25406336784363
aI0
aF0.0
asg25
(lp226
S'530_watch_sa.bag'
p227
aS'530_watch_man.bag'
p228
asg29
I1
sg30
g31
sg32
(lp229
g31
ag31
ag31
ag31
ag31
asg34
(lp230
F20.13
aF251.78590774536133
aI0
aF52.0
asg36
(lp231
S'530_phone.bag'
p232
asg39
(lp233
g31
ag31
ag31
ag31
ag31
asg41
(lp234
g31
ag16
ag31
ag16
ag31
ag31
ag31
ag31
asg43
(lp235
g220
ag228
asg45
(lp236
g227
ag219
ag232
ag217
ag220
ag228
asg47
g31
sg48
I0
sg49
g16
sg50
g16
sg51
S'/home/aransena/thesis_ws/Data/robot_testing/results/530'
p237
sg53
(lp238
g16
ag14
ag15
ag17
asg55
I2
sg56
(lp239
F21.29
aF273.7697904109955
aI0
aF29.67
asg58
I1
sg59
S'Difficulty turning on the spot without moving forward/backward when not using watch'
p240
sg61
(lp241
g16
ag16
ag16
ag16
ag16
asg63
(lp242
F21.03
aF170.80404233932495
aI0
aF0.0
asg65
(lp243
g227
ag219
asg67
g17
sba(ireal_participants
participant
p244
(dp245
g3
(lp246
S'512_tablet.bag'
p247
asg6
(lp248
S'512_xbox_sa.bag'
p249
aS'512_xbox_man.bag'
p250
asg10
S'512'
p251
sg12
(lp252
g16
ag17
ag15
ag14
asg18
(lp253
F22.16
aF211.49760270118713
aI0
aF23.42
asg20
(lp254
F23.04
aF231.1470103263855
aI1
aF53.87
asg22
I4
sg23
(lp255
F20.93
aF177.13793277740479
aI0
aF0.0
asg25
(lp256
S'512_watch_sa.bag'
p257
aS'512_watch_man.bag'
p258
asg29
I2
sg30
g31
sg32
(lp259
g31
ag31
ag31
ag31
ag31
asg34
(lp260
F22.01
aF260.3735156059265
aI0
aF29.97
asg36
(lp261
S'512_phone.bag'
p262
asg39
(lp263
g16
ag15
ag17
ag31
ag14
asg41
(lp264
g31
ag31
ag31
ag31
ag31
ag31
ag31
ag31
asg43
(lp265
g250
ag258
asg45
(lp266
g247
ag257
ag262
ag249
ag250
ag258
asg47
g31
sg48
I0
sg49
g16
sg50
g31
sg51
S'/home/aransena/thesis_ws/Data/robot_testing/results/512'
p267
sg53
(lp268
g17
ag16
ag14
ag15
asg55
I3
sg56
(lp269
F21.24
aF187.82772660255432
aI0
aF17.42
asg58
I1
sg59
S'Na'
p270
sg61
(lp271
g16
ag15
ag17
ag31
ag14
asg63
(lp272
F21.32
aF191.51208782196045
aI1
aF0.0
asg65
(lp273
g257
ag249
asg67
g14
sba(ireal_participants
participant
p274
(dp275
g3
(lp276
S'503_tablet.bag'
p277
asg6
(lp278
S'503_xbox_sa.bag'
p279
aS'503_xbox_man.bag'
p280
asg10
S'503'
p281
sg12
(lp282
g17
ag16
ag14
ag15
asg18
(lp283
F22.78
aF301.894739151001
aI1
aF43.59
asg20
(lp284
F22.35
aF341.36158871650696
aI1
aF37.56
asg22
I3
sg23
(lp285
F22.76
aF228.9703767299652
aI2
aF0.0
asg25
(lp286
S'503_watch_sa.bag'
p287
aS'503_watch_man.bag'
p288
asg29
I1
sg30
g31
sg32
(lp289
g31
ag31
ag31
ag16
ag31
asg34
(lp290
F21.9
aF306.77406907081604
aI1
aF18.93
asg36
(lp291
S'503_phone.bag'
p292
asg39
(lp293
g31
ag31
ag14
ag31
ag14
asg41
(lp294
g14
ag31
ag31
ag31
ag16
ag31
ag16
ag31
asg43
(lp295
g280
ag288
asg45
(lp296
g292
ag279
ag280
ag287
ag277
ag288
asg47
g31
sg48
I0
sg49
g31
sg50
g31
sg51
S'/home/aransena/thesis_ws/Data/robot_testing/results/503'
p297
sg53
(lp298
g14
ag17
ag16
ag15
asg55
I3
sg56
(lp299
F21.27
aF193.3876485824585
aI0
aF25.02
asg58
I1
sg59
S'"Having to cancel your rotate command when using manual watch I found challengi'
p300
sg61
(lp301
g17
ag16
ag17
ag14
ag31
asg63
(lp302
F22.62
aF230.59352445602417
aI1
aF0.0
asg65
(lp303
g279
ag287
asg67
g17
sba(ireal_participants
participant
p304
(dp305
g3
(lp306
S'528_tablet.bag'
p307
asg6
(lp308
S'528_xbox_sa.bag'
p309
aS'528_xbox_man.bag'
p310
asg10
S'528'
p311
sg12
(lp312
g15
ag14
ag17
ag16
asg18
(lp313
F22.44
aF195.94462037086487
aI0
aF19.09
asg20
(lp314
F22.01
aF242.5545153617859
aI0
aF11.73
asg22
I1
sg23
(lp315
F22.47
aF305.59501814842224
aI2
aF0.0
asg25
(lp316
S'528_watch_man.bag'
p317
aS'528_watch_sa.bag'
p318
asg29
I2
sg30
g31
sg32
(lp319
g31
ag31
ag16
ag16
ag31
asg34
(lp320
F22.72
aF243.92030119895935
aI1
aF26.17
asg36
(lp321
S'528_phone.bag'
p322
asg39
(lp323
g17
ag31
ag16
ag31
ag31
asg41
(lp324
g31
ag16
ag31
ag16
ag31
ag16
ag31
ag16
asg43
(lp325
g317
ag310
asg45
(lp326
g307
ag322
ag317
ag309
ag310
ag318
asg47
g31
sg48
I0
sg49
g16
sg50
g31
sg51
S'/home/aransena/thesis_ws/Data/robot_testing/results/528'
p327
sg53
(lp328
g15
ag14
ag17
ag16
asg55
I2
sg56
(lp329
F21.39
aF223.55435991287231
aI0
aF21.82
asg58
I1
sg59
S'turning with x box controller had a speed increase. '
p330
sg61
(lp331
g17
ag16
ag14
ag14
ag31
asg63
(lp332
F21.45
aF168.83944177627563
aI0
aF0.0
asg65
(lp333
g309
ag318
asg67
g17
sba(ireal_participants
participant
p334
(dp335
g3
(lp336
S'513_tablet.bag'
p337
asg6
(lp338
S'513_xbox_man.bag'
p339
aS'513_xbox_sa.bag'
p340
asg10
S'513'
p341
sg12
(lp342
g16
ag15
ag14
ag17
asg18
(lp343
F22.09
aF310.7042489051819
aI0
aF33.16
asg20
(lp344
F23.27
aF267.5930006504059
aI1
aF20.84
asg22
I2
sg23
(lp345
F21.95
aF176.53118658065796
aI0
aF0.0
asg25
(lp346
S'513_watch_sa.bag'
p347
aS'513_watch_man.bag'
p348
asg29
I2
sg30
g31
sg32
(lp349
g31
ag31
ag31
ag16
ag31
asg34
(lp350
F22.94
aF279.46274995803833
aI1
aF0.0
asg36
(lp351
S'513_phone.bag'
p352
asg39
(lp353
g14
ag16
ag14
ag16
ag15
asg41
(lp354
g16
ag31
ag16
ag16
ag14
ag14
ag16
ag16
asg43
(lp355
g339
ag348
asg45
(lp356
g339
ag347
ag352
ag348
ag340
ag337
asg47
g16
sg48
I0
sg49
g16
sg50
g16
sg51
S'/home/aransena/thesis_ws/Data/robot_testing/results/513'
p357
sg53
(lp358
g14
ag16
ag15
ag17
asg55
I2
sg56
(lp359
F21.42
aF303.273579120636
aI2
aF21.04
asg58
I1
sg59
g60
sg61
(lp360
g17
ag14
ag17
ag14
ag16
asg63
(lp361
F21.84
aF204.02653408050537
aI1
aF0.2
asg65
(lp362
g347
ag340
asg67
g17
sba(ireal_participants
participant
p363
(dp364
g3
(lp365
S'526_tablet.bag'
p366
asg6
(lp367
S'526_xbox_man.bag'
p368
aS'526_xbox_sa.bag'
p369
asg10
S'526'
p370
sg12
(lp371
g17
ag15
ag14
ag16
asg18
(lp372
F19.37
aF341.00362753868103
aI1
aF39.44
asg20
(lp373
F20.08
aF322.4304304122925
aI0
aF33.16
asg22
I1
sg23
(lp374
F20.58
aF203.2505133152008
aI0
aF0.0
asg25
(lp375
S'526_watch_sa.bag'
p376
aS'526_watch_man.bag'
p377
asg29
I4
sg30
g14
sg32
(lp378
g14
ag14
ag17
ag17
ag14
asg34
(lp379
F21.45
aF339.7582223415375
aI2
aF85.99
asg36
(lp380
S'526_phone.bag'
p381
asg39
(lp382
g31
ag14
ag31
ag31
ag31
asg41
(lp383
g31
ag16
ag14
ag14
ag31
ag31
ag16
ag16
asg43
(lp384
g368
ag377
asg45
(lp385
g381
ag366
ag368
ag369
ag376
ag377
asg47
g14
sg48
I0
sg49
g14
sg50
g16
sg51
S'/home/aransena/thesis_ws/Data/robot_testing/results/526'
p386
sg53
(lp387
g14
ag17
ag15
ag16
asg55
I1
sg56
(lp388
F21.52
aF357.3312613964081
aI1
aF29.39
asg58
I1
sg59
g60
sg61
(lp389
g31
ag14
ag16
ag31
ag31
asg63
(lp390
F0.0
aF365.0136775970459
aI0
aF0.12
asg65
(lp391
g369
ag376
asg67
g17
sba(ireal_participants
participant
p392
(dp393
g3
(lp394
S'529_tablet.bag'
p395
asg6
(lp396
S'529_xbox_man.bag'
p397
aS'529_xbox_sa.bag'
p398
asg10
S'529'
p399
sg18
(lp400
F22.53
aF339.49237632751465
aI0
aF33.12
asg20
(lp401
F18.57
aF258.95931363105774
aI2
aF31.0
asg22
I2
sg23
(lp402
F19.34
aF257.0540211200714
aI1
aF0.0
asg25
(lp403
S'529_watch_sa.bag'
p404
aS'529_watch_man.bag'
p405
asg29
I2
sg32
(lp406
g31
ag31
ag16
ag17
ag31
asg34
(lp407
F19.14
aF227.5215404033661
aI0
aF39.41
asg36
(lp408
S'529_phone.bag'
p409
asg43
(lp410
g397
ag405
asg45
(lp411
g409
ag397
ag404
ag395
ag405
ag398
asg47
g14
sg48
I0
sg49
g31
sg50
g16
sg51
S'/home/aransena/thesis_ws/Data/robot_testing/results/529'
p412
sg55
I2
sg56
(lp413
F18.56
aF216.68525552749634
aI0
aF30.73
asg58
I1
sg63
(lp414
F21.19
aF204.18781733512878
aI0
aF0.0
asg65
(lp415
g404
ag398
asba.