(lp0
(ireal_participants
participant
p1
(dp2
S'tablet_files'
p3
(lp4
S'531_tablet.bag'
p5
asS'xbox_files'
p6
(lp7
S'531_xbox_sa.bag'
p8
aS'531_xbox_man.bag'
p9
asS'test_num'
p10
S'531'
p11
sS'post_rank_pref_sa'
p12
(lp13
S'3'
p14
aS'1'
p15
aS'4'
p16
aS'2'
p17
asS'watch_sa_data'
p18
(lp19
F20.37
aF221.0676498413086
aI0
aF20.16
asS'phone_data'
p20
(lp21
F22.83
aF240.15599918365479
aI2
aF29.78
asS'pre_ever_played'
p22
I4
sS'xbox_man_data'
p23
(lp24
F20.82
aF198.48191809654236
aI0
aF0.0
asS'watch_files'
p25
(lp26
S'531_watch_man.bag'
p27
aS'531_watch_sa.bag'
p28
asS'pre_age_range'
p29
I2
sS'post_trust'
p30
S'5'
p31
sS'pre_would_be_easy'
p32
(lp33
g16
ag31
ag31
ag16
ag16
asS'tablet_data'
p34
(lp35
F20.3
aF220.7873251438141
aI0
aF49.34
asS'phone_files'
p36
(lp37
S'531_phone.bag'
p38
asS'post_rate_challenges_sa'
p39
(lp40
g31
ag31
ag31
ag31
ag31
asS'post_ease_of_use'
p41
(lp42
g31
ag31
ag16
ag16
ag16
ag16
ag31
ag31
asS'man_files'
p43
(lp44
g27
ag9
asS'files'
p45
(lp46
g27
ag38
ag8
ag9
ag5
ag28
asS'pre_trust'
p47
g31
sS'pre_health'
p48
I0
sS'pre_ability_technology'
p49
g31
sS'pre_spatial'
p50
g31
sS'path'
p51
S'/home/aransena/thesis_ws/Data/robot_testing/results/531'
p52
sS'post_rank_pref_man'
p53
(lp54
g14
ag16
ag17
ag15
asS'pre_how_often'
p55
I4
sS'xbox_sa_data'
p56
(lp57
F20.1
aF180.4177052974701
aI0
aF32.26
asS'gender'
p58
I1
sS'post_comment'
p59
S''
p60
sS'post_rate_challenges_man'
p61
(lp62
g31
ag16
ag16
ag16
ag31
asS'watch_man_data'
p63
(lp64
F20.81
aF177.29782891273499
aI0
aF0.0
asS'sa_files'
p65
(lp66
g8
ag28
asS'post_sit_stand'
p67
g17
sba(ireal_participants
participant
p68
(dp69
g3
(lp70
S'501_tablet.bag'
p71
asg6
(lp72
S'501_xbox_man.bag'
p73
aS'501_xbox_sa.bag'
p74
asg10
S'501'
p75
sg12
(lp76
g17
ag15
ag16
ag14
asg18
(lp77
F21.57
aF282.43255281448364
aI0
aF51.02
asg20
(lp78
F20.44
aF297.2627296447754
aI2
aF77.2
asg22
I3
sg23
(lp79
F22.75
aF279.63302969932556
aI0
aF0.0
asg25
(lp80
S'501_watch_sa.bag'
p81
aS'501_watch_man.bag'
p82
asg29
I3
sg30
g14
sg32
(lp83
g31
ag16
ag17
ag14
ag16
asg34
(lp84
F20.58
aF354.3858833312988
aI1
aF69.14
asg36
(lp85
S'501_phone.bag'
p86
asg39
(lp87
g16
ag14
ag16
ag16
ag31
asg41
(lp88
g31
ag16
ag17
ag16
ag14
ag16
ag14
ag16
asg43
(lp89
g73
ag82
asg45
(lp90
g81
ag73
ag74
ag86
ag82
ag71
asg47
g14
sg48
I0
sg49
g16
sg50
g16
sg51
S'/home/aransena/thesis_ws/Data/robot_testing/results/501'
p91
sg53
(lp92
g14
ag16
ag15
ag17
asg55
I3
sg56
(lp93
F20.76
aF344.4838984012604
aI0
aF56.65
asg58
I2
sg59
g60
sg61
(lp94
g14
ag14
ag16
ag14
ag31
asg63
(lp95
F20.56
aF193.00572299957275
aI0
aF0.0
asg65
(lp96
g81
ag74
asg67
g17
sba(ireal_participants
participant
p97
(dp98
g3
(lp99
S'502_tablet.bag'
p100
asg6
(lp101
S'502_xbox_man.bag'
p102
aS'502_xbox_sa.bag'
p103
asg10
S'502'
p104
sg12
(lp105
g14
ag17
ag16
ag31
asg18
(lp106
F22.03
aF331.9612286090851
aI1
aF24.94
asg20
(lp107
F22.84
aF355.6748924255371
aI2
aF48.11
asg22
I3
sg23
(lp108
F21.68
aF224.03005647659302
aI0
aF0.0
asg25
(lp109
S'502_watch_man.bag'
p110
aS'502_watch_sa.bag'
p111
asg29
I1
sg30
g14
sg32
(lp112
g17
ag14
ag31
ag16
ag16
asg34
(lp113
F21.38
aF287.8335256576538
aI1
aF65.71
asg36
(lp114
S'502_phone.bag'
p115
asg39
(lp116
g16
ag16
ag17
ag16
ag14
asg41
(lp117
g17
ag14
ag16
ag31
ag17
ag14
ag14
ag16
asg43
(lp118
g110
ag102
asg45
(lp119
g110
ag100
ag115
ag111
ag102
ag103
asg47
g16
sg48
I0
sg49
g16
sg50
g31
sg51
S'/home/aransena/thesis_ws/Data/robot_testing/results/502'
p120
sg53
(lp121
g14
ag17
ag15
ag16
asg55
I4
sg56
(lp122
F20.11
aF213.48375153541565
aI1
aF15.13
asg58
I2
sg59
g60
sg61
(lp123
g14
ag14
ag15
ag16
ag16
asg63
(lp124
F19.92
aF207.35547542572021
aI0
aF0.0
asg65
(lp125
g111
ag103
asg67
g16
sba(ireal_participants
participant
p126
(dp127
g3
(lp128
S'510_tablet.bag'
p129
asg6
(lp130
S'510_xbox_man.bag'
p131
aS'510_xbox_sa.bag'
p132
asg10
S'510'
p133
sg12
(lp134
g16
ag17
ag15
ag14
asg18
(lp135
F20.03
aF344.0368528366089
aI0
aF31.02
asg20
(lp136
F18.73
aF187.95448517799377
aI0
aF17.24
asg22
I4
sg23
(lp137
F20.52
aF219.64056301116943
aI1
aF0.0
asg25
(lp138
S'510_watch_sa.bag'
p139
aS'510_watch_man.bag'
p140
asg29
I1
sg30
g14
sg32
(lp141
g16
ag16
ag31
ag14
ag31
asg34
(lp142
F19.71
aF288.2473385334015
aI1
aF35.42
asg36
(lp143
S'510_phone.bag'
p144
asg39
(lp145
g31
ag14
ag31
ag31
ag31
asg41
(lp146
g16
ag16
ag31
ag31
ag14
ag14
ag14
ag14
asg43
(lp147
g131
ag140
asg45
(lp148
g139
ag131
ag140
ag144
ag132
ag129
asg47
g14
sg48
I0
sg49
g31
sg50
g31
sg51
S'/home/aransena/thesis_ws/Data/robot_testing/results/510'
p149
sg53
(lp150
g15
ag17
ag14
ag16
asg55
I5
sg56
(lp151
F20.27
aF323.95311975479126
aI1
aF21.4
asg58
I1
sg59
g60
sg61
(lp152
g14
ag14
ag17
ag14
ag31
asg63
(lp153
F19.68
aF179.34899020195007
aI0
aF0.0
asg65
(lp154
g139
ag132
asg67
g16
sba(ireal_participants
participant
p155
(dp156
g3
(lp157
S'522_tablet.bag'
p158
asg6
(lp159
S'522_xbox_sa.bag'
p160
aS'522_xbox_man.bag'
p161
asg10
S'522'
p162
sg12
(lp163
g15
ag16
ag17
ag14
asg18
(lp164
F11.75
aF198.63783288002014
aI0
aF45.44
asg20
(lp165
F19.67
aF251.5414571762085
aI3
aF54.48
asg22
I3
sg23
(lp166
F21.9
aF229.3459529876709
aI3
aF0.0
asg25
(lp167
S'522_watch_man.bag'
p168
aS'522_watch_sa.bag'
p169
asg29
I4
sg30
g16
sg32
(lp170
g31
ag31
ag14
ag16
ag31
asg34
(lp171
F21.81
aF245.41741704940796
aI3
aF50.43
asg36
(lp172
S'522_phone.bag'
p173
asg39
(lp174
g31
ag16
ag16
ag14
ag17
asg41
(lp175
g15
ag17
ag14
ag16
ag16
ag31
ag16
ag31
asg43
(lp176
g168
ag161
asg45
(lp177
g168
ag169
ag160
ag161
ag158
ag173
asg47
g16
sg48
I0
sg49
g31
sg50
g31
sg51
S'/home/aransena/thesis_ws/Data/robot_testing/results/522'
p178
sg53
(lp179
g17
ag15
ag16
ag14
asg55
I4
sg56
(lp180
F22.47
aF258.32990312576294
aI0
aF39.65
asg58
I1
sg59
g60
sg61
(lp181
g31
ag17
ag17
ag14
ag17
asg63
(lp182
F21.54
aF287.22557377815247
aI0
aF0.0
asg65
(lp183
g169
ag160
asg67
g14
sba(ireal_participants
participant
p184
(dp185
g3
(lp186
S'507_tablet.bag'
p187
asg6
(lp188
S'507_xbox_sa.bag'
p189
aS'507_xbox_man.bag'
p190
asg10
S'507'
p191
sg12
(lp192
g15
ag14
ag17
ag16
asg18
(lp193
F19.26
aF312.91040897369385
aI0
aF39.62
asg20
(lp194
F22.17
aF394.16313433647156
aI0
aF72.5
asg22
I4
sg23
(lp195
F23.66
aF376.7095582485199
aI1
aF0.08
asg25
(lp196
S'507_watch_sa.bag'
p197
aS'507_watch_man.bag'
p198
asg29
I2
sg30
g14
sg32
(lp199
g31
ag31
ag14
ag16
ag16
asg34
(lp200
F21.22
aF300.0518274307251
aI1
aF58.2
asg36
(lp201
S'507_phone.bag'
p202
asg39
(lp203
g16
ag14
ag14
ag16
ag14
asg41
(lp204
g16
ag16
ag15
ag15
ag16
ag16
ag16
ag16
asg43
(lp205
g190
ag198
asg45
(lp206
g189
ag197
ag187
ag202
ag190
ag198
asg47
g17
sg48
I0
sg49
g16
sg50
g16
sg51
S'/home/aransena/thesis_ws/Data/robot_testing/results/507'
p207
sg53
(lp208
g17
ag15
ag14
ag16
asg55
I4
sg56
(lp209
F18.05
aF217.82855987548828
aI0
aF20.14
asg58
I2
sg59
g60
sg61
(lp210
g31
ag14
ag16
ag16
ag14
asg63
(lp211
F22.21
aF242.94363975524902
aI0
aF0.17
asg65
(lp212
g189
ag197
asg67
g17
sba(ireal_participants
participant
p213
(dp214
g3
(lp215
S'506_tablet.bag'
p216
asg6
(lp217
S'506_xbox_sa.bag'
p218
aS'506_xbox_man.bag'
p219
asg10
S'506'
p220
sg12
(lp221
g16
ag17
ag14
ag31
asg18
(lp222
F19.35
aF252.76305985450745
aI0
aF55.25
asg20
(lp223
F24.09
aF413.41479873657227
aI2
aF23.22
asg22
I4
sg23
(lp224
F21.1
aF193.40440702438354
aI0
aF0.0
asg25
(lp225
S'506_watch_sa.bag'
p226
aS'506_watch_man.bag'
p227
asg29
I1
sg30
g14
sg32
(lp228
g31
ag31
ag31
ag16
ag31
asg34
(lp229
F19.58
aF270.28555941581726
aI0
aF75.05
asg36
(lp230
S'506_phone.bag'
p231
asg39
(lp232
g16
ag16
ag17
ag14
ag15
asg41
(lp233
g17
ag14
ag14
ag16
ag14
ag16
ag14
ag16
asg43
(lp234
g219
ag227
asg45
(lp235
g226
ag231
ag216
ag218
ag219
ag227
asg47
g14
sg48
I0
sg49
g31
sg50
g16
sg51
S'/home/aransena/thesis_ws/Data/robot_testing/results/506'
p236
sg53
(lp237
g14
ag17
ag16
ag15
asg55
I4
sg56
(lp238
F21.99
aF276.92030787467957
aI0
aF4.88
asg58
I1
sg59
S'Manually controlling the robot with the smart watch was the biggest challenge.'
p239
sg61
(lp240
g14
ag17
ag16
ag14
ag16
asg63
(lp241
F0.0
aF383.1185462474823
aI1
aF0.0
asg65
(lp242
g226
ag218
asg67
g14
sba(ireal_participants
participant
p243
(dp244
g3
(lp245
S'504_tablet.bag'
p246
asg6
(lp247
S'504_xbox_sa.bag'
p248
aS'504_xbox_man.bag'
p249
asg10
S'504'
p250
sg12
(lp251
g17
ag14
ag15
ag16
asg18
(lp252
F23.23
aF386.15240931510925
aI2
aF24.76
asg20
(lp253
F20.63
aF349.38336086273193
aI6
aF31.38
asg22
I2
sg23
(lp254
F20.68
aF237.86830639839172
aI0
aF0.0
asg25
(lp255
S'504_watch_man.bag'
p256
aS'504_watch_sa.bag'
p257
asg29
I3
sg30
g16
sg32
(lp258
g16
ag16
ag17
ag14
ag16
asg34
(lp259
F19.85
aF374.5381851196289
aI0
aF22.8
asg36
(lp260
S'504_phone.bag'
p261
asg39
(lp262
g14
ag15
ag17
ag31
ag16
asg41
(lp263
g14
ag17
ag14
ag17
ag14
ag14
ag16
ag16
asg43
(lp264
g256
ag249
asg45
(lp265
g246
ag248
ag256
ag261
ag249
ag257
asg47
g16
sg48
I1
sg49
g16
sg50
g16
sg51
S'/home/aransena/thesis_ws/Data/robot_testing/results/504'
p266
sg53
(lp267
g16
ag15
ag17
ag14
asg55
I2
sg56
(lp268
F20.3
aF292.56960892677307
aI1
aF10.45
asg58
I1
sg59
g60
sg61
(lp269
g31
ag17
ag15
ag14
ag16
asg63
(lp270
F21.51
aF237.6772050857544
aI3
aF0.0
asg65
(lp271
g248
ag257
asg67
g15
sba(ireal_participants
participant
p272
(dp273
g3
(lp274
S'511_tablet.bag'
p275
asg6
(lp276
S'511_xbox_man.bag'
p277
aS'511_xbox_sa.bag'
p278
asg10
S'511'
p279
sg12
(lp280
g17
ag16
ag14
ag15
asg18
(lp281
F19.48
aF270.5371198654175
aI0
aF39.17
asg20
(lp282
F20.13
aF176.0304307937622
aI1
aF9.01
asg22
I2
sg23
(lp283
F19.25
aF164.03920316696167
aI0
aF0.0
asg25
(lp284
S'511_watch_man.bag'
p285
aS'511_watch_sa.bag'
p286
asg29
I2
sg30
g14
sg32
(lp287
g16
ag16
ag31
ag14
ag31
asg34
(lp288
F18.21
aF188.1677324771881
aI0
aF56.8
asg36
(lp289
S'511_phone.bag'
p290
asg39
(lp291
g31
ag16
ag16
ag17
ag16
asg41
(lp292
g14
ag16
ag31
ag31
ag16
ag16
ag14
ag16
asg43
(lp293
g277
ag285
asg45
(lp294
g277
ag278
ag275
ag290
ag285
ag286
asg47
g14
sg48
I0
sg49
g31
sg50
g16
sg51
S'/home/aransena/thesis_ws/Data/robot_testing/results/511'
p295
sg53
(lp296
g14
ag17
ag16
ag15
asg55
I3
sg56
(lp297
F20.3
aF225.88768649101257
aI1
aF0.0
asg58
I1
sg59
g60
sg61
(lp298
g31
ag16
ag14
ag17
ag14
asg63
(lp299
F20.08
aF214.44025874137878
aI0
aF0.14
asg65
(lp300
g278
ag286
asg67
g14
sba(ireal_participants
participant
p301
(dp302
g3
(lp303
S'530_tablet.bag'
p304
asg6
(lp305
S'530_xbox_sa.bag'
p306
aS'530_xbox_man.bag'
p307
asg10
S'530'
p308
sg12
(lp309
g17
ag14
ag15
ag16
asg18
(lp310
F20.49
aF262.6713593006134
aI0
aF38.2
asg20
(lp311
F20.04
aF286.7726962566376
aI0
aF49.69
asg22
I2
sg23
(lp312
F21.02
aF177.25406336784363
aI0
aF0.0
asg25
(lp313
S'530_watch_sa.bag'
p314
aS'530_watch_man.bag'
p315
asg29
I1
sg30
g31
sg32
(lp316
g31
ag31
ag31
ag31
ag31
asg34
(lp317
F20.13
aF251.78590774536133
aI0
aF52.0
asg36
(lp318
S'530_phone.bag'
p319
asg39
(lp320
g31
ag31
ag31
ag31
ag31
asg41
(lp321
g31
ag16
ag31
ag16
ag31
ag31
ag31
ag31
asg43
(lp322
g307
ag315
asg45
(lp323
g314
ag306
ag319
ag304
ag307
ag315
asg47
g31
sg48
I0
sg49
g16
sg50
g16
sg51
S'/home/aransena/thesis_ws/Data/robot_testing/results/530'
p324
sg53
(lp325
g16
ag14
ag15
ag17
asg55
I2
sg56
(lp326
F21.29
aF273.7697904109955
aI0
aF29.67
asg58
I1
sg59
S'Difficulty turning on the spot without moving forward/backward when not using watch'
p327
sg61
(lp328
g16
ag16
ag16
ag16
ag16
asg63
(lp329
F21.03
aF170.80404233932495
aI0
aF0.0
asg65
(lp330
g314
ag306
asg67
g17
sba(ireal_participants
participant
p331
(dp332
g3
(lp333
S'512_tablet.bag'
p334
asg6
(lp335
S'512_xbox_sa.bag'
p336
aS'512_xbox_man.bag'
p337
asg10
S'512'
p338
sg12
(lp339
g16
ag17
ag15
ag14
asg18
(lp340
F22.16
aF211.49760270118713
aI0
aF23.42
asg20
(lp341
F23.04
aF231.1470103263855
aI1
aF53.87
asg22
I4
sg23
(lp342
F20.93
aF177.13793277740479
aI0
aF0.0
asg25
(lp343
S'512_watch_sa.bag'
p344
aS'512_watch_man.bag'
p345
asg29
I2
sg30
g31
sg32
(lp346
g31
ag31
ag31
ag31
ag31
asg34
(lp347
F22.01
aF260.3735156059265
aI0
aF29.97
asg36
(lp348
S'512_phone.bag'
p349
asg39
(lp350
g16
ag15
ag17
ag31
ag14
asg41
(lp351
g31
ag31
ag31
ag31
ag31
ag31
ag31
ag31
asg43
(lp352
g337
ag345
asg45
(lp353
g334
ag344
ag349
ag336
ag337
ag345
asg47
g31
sg48
I0
sg49
g16
sg50
g31
sg51
S'/home/aransena/thesis_ws/Data/robot_testing/results/512'
p354
sg53
(lp355
g17
ag16
ag14
ag15
asg55
I3
sg56
(lp356
F21.24
aF187.82772660255432
aI0
aF17.42
asg58
I1
sg59
S'Na'
p357
sg61
(lp358
g16
ag15
ag17
ag31
ag14
asg63
(lp359
F21.32
aF191.51208782196045
aI1
aF0.0
asg65
(lp360
g344
ag336
asg67
g14
sba(ireal_participants
participant
p361
(dp362
g3
(lp363
S'503_tablet.bag'
p364
asg6
(lp365
S'503_xbox_sa.bag'
p366
aS'503_xbox_man.bag'
p367
asg10
S'503'
p368
sg12
(lp369
g17
ag16
ag14
ag15
asg18
(lp370
F22.78
aF301.894739151001
aI1
aF43.59
asg20
(lp371
F22.35
aF341.36158871650696
aI1
aF37.56
asg22
I3
sg23
(lp372
F22.76
aF228.9703767299652
aI2
aF0.0
asg25
(lp373
S'503_watch_sa.bag'
p374
aS'503_watch_man.bag'
p375
asg29
I1
sg30
g31
sg32
(lp376
g31
ag31
ag31
ag16
ag31
asg34
(lp377
F21.9
aF306.77406907081604
aI1
aF18.93
asg36
(lp378
S'503_phone.bag'
p379
asg39
(lp380
g31
ag31
ag14
ag31
ag14
asg41
(lp381
g14
ag31
ag31
ag31
ag16
ag31
ag16
ag31
asg43
(lp382
g367
ag375
asg45
(lp383
g379
ag366
ag367
ag374
ag364
ag375
asg47
g31
sg48
I0
sg49
g31
sg50
g31
sg51
S'/home/aransena/thesis_ws/Data/robot_testing/results/503'
p384
sg53
(lp385
g14
ag17
ag16
ag15
asg55
I3
sg56
(lp386
F21.27
aF193.3876485824585
aI0
aF25.02
asg58
I1
sg59
S'"Having to cancel your rotate command when using manual watch I found challengi'
p387
sg61
(lp388
g17
ag16
ag17
ag14
ag31
asg63
(lp389
F22.62
aF230.59352445602417
aI1
aF0.0
asg65
(lp390
g366
ag374
asg67
g17
sba(ireal_participants
participant
p391
(dp392
g3
(lp393
S'528_tablet.bag'
p394
asg6
(lp395
S'528_xbox_sa.bag'
p396
aS'528_xbox_man.bag'
p397
asg10
S'528'
p398
sg12
(lp399
g15
ag14
ag17
ag16
asg18
(lp400
F22.44
aF195.94462037086487
aI0
aF19.09
asg20
(lp401
F22.01
aF242.5545153617859
aI0
aF11.73
asg22
I1
sg23
(lp402
F22.47
aF305.59501814842224
aI2
aF0.0
asg25
(lp403
S'528_watch_man.bag'
p404
aS'528_watch_sa.bag'
p405
asg29
I2
sg30
g31
sg32
(lp406
g31
ag31
ag16
ag16
ag31
asg34
(lp407
F22.72
aF243.92030119895935
aI1
aF26.17
asg36
(lp408
S'528_phone.bag'
p409
asg39
(lp410
g17
ag31
ag16
ag31
ag31
asg41
(lp411
g31
ag16
ag31
ag16
ag31
ag16
ag31
ag16
asg43
(lp412
g404
ag397
asg45
(lp413
g394
ag409
ag404
ag396
ag397
ag405
asg47
g31
sg48
I0
sg49
g16
sg50
g31
sg51
S'/home/aransena/thesis_ws/Data/robot_testing/results/528'
p414
sg53
(lp415
g15
ag14
ag17
ag16
asg55
I2
sg56
(lp416
F21.39
aF223.55435991287231
aI0
aF21.82
asg58
I1
sg59
S'turning with x box controller had a speed increase. '
p417
sg61
(lp418
g17
ag16
ag14
ag14
ag31
asg63
(lp419
F21.45
aF168.83944177627563
aI0
aF0.0
asg65
(lp420
g396
ag405
asg67
g17
sba(ireal_participants
participant
p421
(dp422
g3
(lp423
S'532_tablet.bag'
p424
asg6
(lp425
S'532_xbox_man.bag'
p426
aS'532_xbox_sa.bag'
p427
asg10
S'532'
p428
sg12
(lp429
g14
ag15
ag17
ag16
asg18
(lp430
F18.05
aF203.51486110687256
aI0
aF31.1
asg20
(lp431
F22.52
aF211.7410957813263
aI1
aF58.79
asg22
I3
sg23
(lp432
F19.81
aF253.27346086502075
aI1
aF1.17
asg25
(lp433
S'532_watch_man.bag'
p434
aS'532_watch_sa.bag'
p435
asg29
I1
sg30
g16
sg32
(lp436
g31
ag31
ag14
ag16
ag16
asg34
(lp437
F19.38
aF233.70374822616577
aI0
aF35.8
asg36
(lp438
S'532_phone.bag'
p439
asg39
(lp440
g16
ag14
ag16
ag31
ag31
asg41
(lp441
g31
ag31
ag17
ag16
ag31
ag31
ag16
ag31
asg43
(lp442
g434
ag426
asg45
(lp443
g434
ag426
ag424
ag439
ag435
ag427
asg47
g16
sg48
I0
sg49
g16
sg50
g16
sg51
S'/home/aransena/thesis_ws/Data/robot_testing/results/532'
p444
sg53
(lp445
g15
ag14
ag17
ag16
asg55
I2
sg56
(lp446
F18.05
aF217.82855987548828
aI0
aF20.14
asg58
I2
sg59
g60
sg61
(lp447
g17
ag17
ag14
ag14
ag31
asg63
(lp448
F19.51
aF193.50738072395325
aI0
aF0.0
asg65
(lp449
g435
ag427
asg67
g17
sba(ireal_participants
participant
p450
(dp451
g3
(lp452
S'513_tablet.bag'
p453
asg6
(lp454
S'513_xbox_man.bag'
p455
aS'513_xbox_sa.bag'
p456
asg10
S'513'
p457
sg12
(lp458
g16
ag15
ag14
ag17
asg18
(lp459
F22.09
aF310.7042489051819
aI0
aF33.16
asg20
(lp460
F23.27
aF267.5930006504059
aI1
aF20.84
asg22
I2
sg23
(lp461
F21.95
aF176.53118658065796
aI0
aF0.0
asg25
(lp462
S'513_watch_sa.bag'
p463
aS'513_watch_man.bag'
p464
asg29
I2
sg30
g31
sg32
(lp465
g31
ag31
ag31
ag16
ag31
asg34
(lp466
F22.94
aF279.46274995803833
aI1
aF0.0
asg36
(lp467
S'513_phone.bag'
p468
asg39
(lp469
g14
ag16
ag14
ag16
ag15
asg41
(lp470
g16
ag31
ag16
ag16
ag14
ag14
ag16
ag16
asg43
(lp471
g455
ag464
asg45
(lp472
g455
ag463
ag468
ag464
ag456
ag453
asg47
g16
sg48
I0
sg49
g16
sg50
g16
sg51
S'/home/aransena/thesis_ws/Data/robot_testing/results/513'
p473
sg53
(lp474
g14
ag16
ag15
ag17
asg55
I2
sg56
(lp475
F21.42
aF303.273579120636
aI2
aF21.04
asg58
I1
sg59
g60
sg61
(lp476
g17
ag14
ag17
ag14
ag16
asg63
(lp477
F21.84
aF204.02653408050537
aI1
aF0.2
asg65
(lp478
g463
ag456
asg67
g17
sba(ireal_participants
participant
p479
(dp480
g3
(lp481
S'526_tablet.bag'
p482
asg6
(lp483
S'526_xbox_man.bag'
p484
aS'526_xbox_sa.bag'
p485
asg10
S'526'
p486
sg12
(lp487
g17
ag15
ag14
ag16
asg18
(lp488
F19.37
aF341.00362753868103
aI1
aF39.44
asg20
(lp489
F20.08
aF322.4304304122925
aI0
aF33.16
asg22
I1
sg23
(lp490
F20.58
aF203.2505133152008
aI0
aF0.0
asg25
(lp491
S'526_watch_sa.bag'
p492
aS'526_watch_man.bag'
p493
asg29
I5
sg30
g14
sg32
(lp494
g14
ag14
ag17
ag17
ag14
asg34
(lp495
F21.45
aF339.7582223415375
aI2
aF85.99
asg36
(lp496
S'526_phone.bag'
p497
asg39
(lp498
g31
ag14
ag31
ag31
ag31
asg41
(lp499
g31
ag16
ag14
ag14
ag31
ag31
ag16
ag16
asg43
(lp500
g484
ag493
asg45
(lp501
g497
ag482
ag484
ag485
ag492
ag493
asg47
g14
sg48
I0
sg49
g14
sg50
g16
sg51
S'/home/aransena/thesis_ws/Data/robot_testing/results/526'
p502
sg53
(lp503
g14
ag17
ag15
ag16
asg55
I1
sg56
(lp504
F21.52
aF357.3312613964081
aI1
aF29.39
asg58
I1
sg59
g60
sg61
(lp505
g31
ag14
ag16
ag31
ag31
asg63
(lp506
F0.0
aF365.0136775970459
aI0
aF0.12
asg65
(lp507
g485
ag492
asg67
g17
sba(ireal_participants
participant
p508
(dp509
g3
(lp510
S'527_tablet.bag'
p511
asg6
(lp512
S'527_xbox_man.bag'
p513
aS'527_xbox_sa.bag'
p514
asg10
S'527'
p515
sg12
(lp516
g14
ag15
ag16
ag17
asg18
(lp517
F20.1
aF451.62554144859314
aI0
aF43.62
asg20
(lp518
F20.47
aF451.51624751091003
aI4
aF19.01
asg22
I1
sg23
(lp519
F24.8
aF495.2005090713501
aI3
aF0.0
asg25
(lp520
S'527_watch_man.bag'
p521
aS'527_watch_sa.bag'
p522
asg29
I5
sg30
g16
sg32
(lp523
g14
ag17
ag17
ag17
ag14
asg34
(lp524
F22.12
aF385.87744545936584
aI0
aF35.77
asg36
(lp525
S'527_phone.bag'
p526
asg39
(lp527
g16
ag16
ag16
ag16
ag16
asg41
(lp528
g16
ag31
ag17
ag14
ag14
ag16
ag17
ag14
asg43
(lp529
g513
ag521
asg45
(lp530
g513
ag521
ag511
ag522
ag526
ag514
asg47
g16
sg48
I0
sg49
g17
sg50
g16
sg51
S'/home/aransena/thesis_ws/Data/robot_testing/results/527'
p531
sg53
(lp532
g16
ag14
ag15
ag17
asg55
I1
sg56
(lp533
F21.5
aF461.6071755886078
aI3
aF14.47
asg58
I2
sg59
g60
sg61
(lp534
g14
ag16
ag16
ag16
ag16
asg63
(lp535
F21.15
aF459.1126883029938
aI0
aF0.09
asg65
(lp536
g522
ag514
asg67
g31
sba(ireal_participants
participant
p537
(dp538
g3
(lp539
S'533_tablet.bag'
p540
asg6
(lp541
S'533_xbox_man.bag'
p542
aS'533_xbox_sa.bag'
p543
asg10
S'533'
p544
sg12
(lp545
g17
ag15
ag14
ag16
asg18
(lp546
F21.67
aF238.12893557548523
aI0
aF25.92
asg20
(lp547
F22.2
aF209.5598795413971
aI0
aF0.0
asg22
I3
sg23
(lp548
F22.35
aF190.26851630210876
aI2
aF0.0
asg25
(lp549
S'533_watch_man.bag'
p550
aS'533_watch_sa.bag'
p551
asg29
I2
sg30
g31
sg32
(lp552
g16
ag16
ag16
ag14
ag17
asg34
(lp553
F22.57
aF277.4789972305298
aI1
aF88.33
asg36
(lp554
S'533_phone.bag'
p555
asg39
(lp556
g16
ag14
ag14
ag16
ag16
asg41
(lp557
g16
ag16
ag17
ag14
ag16
ag16
ag14
ag14
asg43
(lp558
g542
ag550
asg45
(lp559
g542
ag540
ag550
ag543
ag551
ag555
asg47
g16
sg48
I0
sg49
g16
sg50
g16
sg51
S'/home/aransena/thesis_ws/Data/robot_testing/results/533'
p560
sg53
(lp561
g17
ag15
ag14
ag16
asg55
I3
sg56
(lp562
F22.29
aF264.28590059280396
aI1
aF12.97
asg58
I2
sg59
g60
sg61
(lp563
g17
ag17
ag14
ag14
ag14
asg63
(lp564
F21.9
aF303.12743282318115
aI0
aF0.0
asg65
(lp565
g543
ag551
asg67
g17
sba(ireal_participants
participant
p566
(dp567
g3
(lp568
S'529_tablet.bag'
p569
asg6
(lp570
S'529_xbox_man.bag'
p571
aS'529_xbox_sa.bag'
p572
asg10
S'529'
p573
sg18
(lp574
F22.53
aF339.49237632751465
aI0
aF33.12
asg20
(lp575
F18.57
aF258.95931363105774
aI2
aF31.0
asg22
I2
sg23
(lp576
F19.34
aF257.0540211200714
aI1
aF0.0
asg25
(lp577
S'529_watch_sa.bag'
p578
aS'529_watch_man.bag'
p579
asg29
I2
sg32
(lp580
g31
ag31
ag16
ag17
ag31
asg34
(lp581
F19.14
aF227.5215404033661
aI0
aF39.41
asg36
(lp582
S'529_phone.bag'
p583
asg43
(lp584
g571
ag579
asg45
(lp585
g583
ag571
ag578
ag569
ag579
ag572
asg47
g14
sg48
I0
sg49
g31
sg50
g16
sg51
S'/home/aransena/thesis_ws/Data/robot_testing/results/529'
p586
sg55
I2
sg56
(lp587
F18.56
aF216.68525552749634
aI0
aF30.73
asg58
I1
sg63
(lp588
F21.19
aF204.18781733512878
aI0
aF0.0
asg65
(lp589
g578
ag572
asba.