(lp0
(ireal_participants
participant
p1
(dp2
S'tablet_files'
p3
(lp4
S'501_tablet.bag'
p5
asS'xbox_files'
p6
(lp7
S'501_xbox_man.bag'
p8
aS'501_xbox_sa.bag'
p9
asS'test_num'
p10
S'501'
p11
sS'post_rank_pref_sa'
p12
(lp13
S'2'
p14
aS'1'
p15
aS'4'
p16
aS'3'
p17
asS'watch_sa_data'
p18
(lp19
F21.57
aF282.43255281448364
aI0
aF51.02
asS'phone_data'
p20
(lp21
F20.44
aF297.2627296447754
aI2
aF77.2
asS'pre_ever_played'
p22
I3
sS'xbox_man_data'
p23
(lp24
F22.75
aF279.63302969932556
aI0
aF0.0
asS'watch_files'
p25
(lp26
S'501_watch_sa.bag'
p27
aS'501_watch_man.bag'
p28
asS'pre_age_range'
p29
I3
sS'post_trust'
p30
g17
sS'pre_would_be_easy'
p31
(lp32
S'5'
p33
ag16
ag14
ag17
ag16
asS'tablet_data'
p34
(lp35
F20.58
aF354.3858833312988
aI1
aF69.14
asS'phone_files'
p36
(lp37
S'501_phone.bag'
p38
asS'post_rate_challenges_sa'
p39
(lp40
g16
ag17
ag16
ag16
ag33
asS'post_ease_of_use'
p41
(lp42
g33
ag16
ag14
ag16
ag17
ag16
ag17
ag16
asS'man_files'
p43
(lp44
g8
ag28
asS'files'
p45
(lp46
g27
ag8
ag9
ag38
ag28
ag5
asS'pre_trust'
p47
g17
sS'pre_health'
p48
I0
sS'pre_ability_technology'
p49
g16
sS'pre_spatial'
p50
g16
sS'path'
p51
S'/home/aransena/thesis_ws/Data/robot_testing/results/501'
p52
sS'post_rank_pref_man'
p53
(lp54
g17
ag16
ag15
ag14
asS'pre_how_often'
p55
I3
sS'xbox_sa_data'
p56
(lp57
F20.76
aF344.4838984012604
aI0
aF56.65
asS'gender'
p58
I2
sS'post_comment'
p59
S''
p60
sS'post_rate_challenges_man'
p61
(lp62
g17
ag17
ag16
ag17
ag33
asS'watch_man_data'
p63
(lp64
F20.56
aF193.00572299957275
aI0
aF0.0
asS'sa_files'
p65
(lp66
g27
ag9
asS'post_sit_stand'
p67
g14
sba(ireal_participants
participant
p68
(dp69
g3
(lp70
S'507_tablet.bag'
p71
asg6
(lp72
S'507_xbox_sa.bag'
p73
aS'507_xbox_man.bag'
p74
asg10
S'507'
p75
sg12
(lp76
g15
ag17
ag14
ag16
asg18
(lp77
F19.26
aF312.91040897369385
aI0
aF39.62
asg20
(lp78
F22.17
aF394.16313433647156
aI0
aF72.5
asg22
I4
sg23
(lp79
F23.66
aF376.7095582485199
aI1
aF0.08
asg25
(lp80
S'507_watch_sa.bag'
p81
aS'507_watch_man.bag'
p82
asg29
I2
sg30
g17
sg31
(lp83
g33
ag33
ag17
ag16
ag16
asg34
(lp84
F21.22
aF300.0518274307251
aI1
aF58.2
asg36
(lp85
S'507_phone.bag'
p86
asg39
(lp87
g16
ag17
ag17
ag16
ag17
asg41
(lp88
g16
ag16
ag15
ag15
ag16
ag16
ag16
ag16
asg43
(lp89
g74
ag82
asg45
(lp90
g73
ag81
ag71
ag86
ag74
ag82
asg47
g14
sg48
I0
sg49
g16
sg50
g16
sg51
S'/home/aransena/thesis_ws/Data/robot_testing/results/507'
p91
sg53
(lp92
g14
ag15
ag17
ag16
asg55
I4
sg56
(lp93
F18.05
aF217.82855987548828
aI0
aF20.14
asg58
I2
sg59
g60
sg61
(lp94
g33
ag17
ag16
ag16
ag17
asg63
(lp95
F22.21
aF242.94363975524902
aI0
aF0.17
asg65
(lp96
g73
ag81
asg67
g14
sba(ireal_participants
participant
p97
(dp98
g3
(lp99
S'506_tablet.bag'
p100
asg6
(lp101
S'506_xbox_sa.bag'
p102
aS'506_xbox_man.bag'
p103
asg10
S'506'
p104
sg12
(lp105
g16
ag14
ag17
ag33
asg18
(lp106
F19.35
aF252.76305985450745
aI0
aF55.25
asg20
(lp107
F24.09
aF413.41479873657227
aI2
aF23.22
asg22
I4
sg23
(lp108
F21.1
aF193.40440702438354
aI0
aF0.0
asg25
(lp109
S'506_watch_sa.bag'
p110
aS'506_watch_man.bag'
p111
asg29
I1
sg30
g17
sg31
(lp112
g33
ag33
ag33
ag16
ag33
asg34
(lp113
F19.58
aF270.28555941581726
aI0
aF75.05
asg36
(lp114
S'506_phone.bag'
p115
asg39
(lp116
g16
ag16
ag14
ag17
ag15
asg41
(lp117
g14
ag17
ag17
ag16
ag17
ag16
ag17
ag16
asg43
(lp118
g103
ag111
asg45
(lp119
g110
ag115
ag100
ag102
ag103
ag111
asg47
g17
sg48
I0
sg49
g33
sg50
g16
sg51
S'/home/aransena/thesis_ws/Data/robot_testing/results/506'
p120
sg53
(lp121
g17
ag14
ag16
ag15
asg55
I4
sg56
(lp122
F21.99
aF276.92030787467957
aI0
aF4.88
asg58
I1
sg59
S'Manually controlling the robot with the smart watch was the biggest challenge.'
p123
sg61
(lp124
g17
ag14
ag16
ag17
ag16
asg63
(lp125
F0.0
aF383.1185462474823
aI1
aF0.0
asg65
(lp126
g110
ag102
asg67
g17
sba(ireal_participants
participant
p127
(dp128
g3
(lp129
S'504_tablet.bag'
p130
asg6
(lp131
S'504_xbox_sa.bag'
p132
aS'504_xbox_man.bag'
p133
asg10
S'504'
p134
sg12
(lp135
g14
ag17
ag15
ag16
asg18
(lp136
F23.23
aF386.15240931510925
aI2
aF24.76
asg20
(lp137
F20.63
aF349.38336086273193
aI6
aF31.38
asg22
I2
sg23
(lp138
F20.68
aF237.86830639839172
aI0
aF0.0
asg25
(lp139
S'504_watch_man.bag'
p140
aS'504_watch_sa.bag'
p141
asg29
I3
sg30
g16
sg31
(lp142
g16
ag16
ag14
ag17
ag16
asg34
(lp143
F19.85
aF374.5381851196289
aI0
aF22.8
asg36
(lp144
S'504_phone.bag'
p145
asg39
(lp146
g17
ag15
ag14
ag33
ag16
asg41
(lp147
g17
ag14
ag17
ag14
ag17
ag17
ag16
ag16
asg43
(lp148
g140
ag133
asg45
(lp149
g130
ag132
ag140
ag145
ag133
ag141
asg47
g16
sg48
I1
sg49
g16
sg50
g16
sg51
S'/home/aransena/thesis_ws/Data/robot_testing/results/504'
p150
sg53
(lp151
g16
ag15
ag14
ag17
asg55
I2
sg56
(lp152
F20.3
aF292.56960892677307
aI1
aF10.45
asg58
I1
sg59
g60
sg61
(lp153
g33
ag14
ag15
ag17
ag16
asg63
(lp154
F21.51
aF237.6772050857544
aI3
aF0.0
asg65
(lp155
g132
ag141
asg67
g15
sba(ireal_participants
participant
p156
(dp157
g3
(lp158
S'511_tablet.bag'
p159
asg6
(lp160
S'511_xbox_man.bag'
p161
aS'511_xbox_sa.bag'
p162
asg10
S'511'
p163
sg12
(lp164
g14
ag16
ag17
ag15
asg18
(lp165
F19.48
aF270.5371198654175
aI0
aF39.17
asg20
(lp166
F20.13
aF176.0304307937622
aI1
aF9.01
asg22
I2
sg23
(lp167
F19.25
aF164.03920316696167
aI0
aF0.0
asg25
(lp168
S'511_watch_man.bag'
p169
aS'511_watch_sa.bag'
p170
asg29
I2
sg30
g17
sg31
(lp171
g16
ag16
ag33
ag17
ag33
asg34
(lp172
F18.21
aF188.1677324771881
aI0
aF56.8
asg36
(lp173
S'511_phone.bag'
p174
asg39
(lp175
g33
ag16
ag16
ag14
ag16
asg41
(lp176
g17
ag16
ag33
ag33
ag16
ag16
ag17
ag16
asg43
(lp177
g161
ag169
asg45
(lp178
g161
ag162
ag159
ag174
ag169
ag170
asg47
g17
sg48
I0
sg49
g33
sg50
g16
sg51
S'/home/aransena/thesis_ws/Data/robot_testing/results/511'
p179
sg53
(lp180
g17
ag14
ag16
ag15
asg55
I3
sg56
(lp181
F20.3
aF225.88768649101257
aI1
aF0.0
asg58
I1
sg59
g60
sg61
(lp182
g33
ag16
ag17
ag14
ag17
asg63
(lp183
F20.08
aF214.44025874137878
aI0
aF0.14
asg65
(lp184
g162
ag170
asg67
g17
sba(ireal_participants
participant
p185
(dp186
g3
(lp187
S'530_tablet.bag'
p188
asg6
(lp189
S'530_xbox_sa.bag'
p190
aS'530_xbox_man.bag'
p191
asg10
S'530'
p192
sg12
(lp193
g14
ag17
ag15
ag16
asg18
(lp194
F20.49
aF262.6713593006134
aI0
aF38.2
asg20
(lp195
F20.04
aF286.7726962566376
aI0
aF49.69
asg22
I2
sg23
(lp196
F21.02
aF177.25406336784363
aI0
aF0.0
asg25
(lp197
S'530_watch_sa.bag'
p198
aS'530_watch_man.bag'
p199
asg29
I1
sg30
g33
sg31
(lp200
g33
ag33
ag33
ag33
ag33
asg34
(lp201
F20.13
aF251.78590774536133
aI0
aF52.0
asg36
(lp202
S'530_phone.bag'
p203
asg39
(lp204
g33
ag33
ag33
ag33
ag33
asg41
(lp205
g33
ag16
ag33
ag16
ag33
ag33
ag33
ag33
asg43
(lp206
g191
ag199
asg45
(lp207
g198
ag190
ag203
ag188
ag191
ag199
asg47
g33
sg48
I0
sg49
g16
sg50
g16
sg51
S'/home/aransena/thesis_ws/Data/robot_testing/results/530'
p208
sg53
(lp209
g16
ag17
ag15
ag14
asg55
I2
sg56
(lp210
F21.29
aF273.7697904109955
aI0
aF29.67
asg58
I1
sg59
S'Difficulty turning on the spot without moving forward/backward when not using watch'
p211
sg61
(lp212
g16
ag16
ag16
ag16
ag16
asg63
(lp213
F21.03
aF170.80404233932495
aI0
aF0.0
asg65
(lp214
g198
ag190
asg67
g14
sba(ireal_participants
participant
p215
(dp216
g3
(lp217
S'532_tablet.bag'
p218
asg6
(lp219
S'532_xbox_man.bag'
p220
aS'532_xbox_sa.bag'
p221
asg10
S'532'
p222
sg12
(lp223
g17
ag15
ag14
ag16
asg18
(lp224
F18.05
aF203.51486110687256
aI0
aF31.1
asg20
(lp225
F22.52
aF211.7410957813263
aI1
aF58.79
asg22
I3
sg23
(lp226
F19.81
aF253.27346086502075
aI1
aF1.17
asg25
(lp227
S'532_watch_man.bag'
p228
aS'532_watch_sa.bag'
p229
asg29
I1
sg30
g16
sg31
(lp230
g33
ag33
ag17
ag16
ag16
asg34
(lp231
F19.38
aF233.70374822616577
aI0
aF35.8
asg36
(lp232
S'532_phone.bag'
p233
asg39
(lp234
g16
ag17
ag16
ag33
ag33
asg41
(lp235
g33
ag33
ag14
ag16
ag33
ag33
ag16
ag33
asg43
(lp236
g228
ag220
asg45
(lp237
g228
ag220
ag218
ag233
ag229
ag221
asg47
g16
sg48
I0
sg49
g16
sg50
g16
sg51
S'/home/aransena/thesis_ws/Data/robot_testing/results/532'
p238
sg53
(lp239
g15
ag17
ag14
ag16
asg55
I2
sg56
(lp240
F18.05
aF217.82855987548828
aI0
aF20.14
asg58
I2
sg59
g60
sg61
(lp241
g14
ag14
ag17
ag17
ag33
asg63
(lp242
F19.51
aF193.50738072395325
aI0
aF0.0
asg65
(lp243
g229
ag221
asg67
g14
sba(ireal_participants
participant
p244
(dp245
g3
(lp246
S'513_tablet.bag'
p247
asg6
(lp248
S'513_xbox_man.bag'
p249
aS'513_xbox_sa.bag'
p250
asg10
S'513'
p251
sg12
(lp252
g16
ag15
ag17
ag14
asg18
(lp253
F22.09
aF310.7042489051819
aI0
aF33.16
asg20
(lp254
F23.27
aF267.5930006504059
aI1
aF20.84
asg22
I2
sg23
(lp255
F21.95
aF176.53118658065796
aI0
aF0.0
asg25
(lp256
S'513_watch_sa.bag'
p257
aS'513_watch_man.bag'
p258
asg29
I2
sg30
g33
sg31
(lp259
g33
ag33
ag33
ag16
ag33
asg34
(lp260
F22.94
aF279.46274995803833
aI1
aF0.0
asg36
(lp261
S'513_phone.bag'
p262
asg39
(lp263
g17
ag16
ag17
ag16
ag15
asg41
(lp264
g16
ag33
ag16
ag16
ag17
ag17
ag16
ag16
asg43
(lp265
g249
ag258
asg45
(lp266
g249
ag257
ag262
ag258
ag250
ag247
asg47
g16
sg48
I0
sg49
g16
sg50
g16
sg51
S'/home/aransena/thesis_ws/Data/robot_testing/results/513'
p267
sg53
(lp268
g17
ag16
ag15
ag14
asg55
I2
sg56
(lp269
F21.42
aF303.273579120636
aI2
aF21.04
asg58
I1
sg59
g60
sg61
(lp270
g14
ag17
ag14
ag17
ag16
asg63
(lp271
F21.84
aF204.02653408050537
aI1
aF0.2
asg65
(lp272
g257
ag250
asg67
g14
sba(ireal_participants
participant
p273
(dp274
g3
(lp275
S'526_tablet.bag'
p276
asg6
(lp277
S'526_xbox_man.bag'
p278
aS'526_xbox_sa.bag'
p279
asg10
S'526'
p280
sg12
(lp281
g14
ag15
ag17
ag16
asg18
(lp282
F19.37
aF341.00362753868103
aI1
aF39.44
asg20
(lp283
F20.08
aF322.4304304122925
aI0
aF33.16
asg22
I1
sg23
(lp284
F20.58
aF203.2505133152008
aI0
aF0.0
asg25
(lp285
S'526_watch_sa.bag'
p286
aS'526_watch_man.bag'
p287
asg29
I4
sg30
g17
sg31
(lp288
g17
ag17
ag14
ag14
ag17
asg34
(lp289
F21.45
aF339.7582223415375
aI2
aF85.99
asg36
(lp290
S'526_phone.bag'
p291
asg39
(lp292
g33
ag17
ag33
ag33
ag33
asg41
(lp293
g33
ag16
ag17
ag17
ag33
ag33
ag16
ag16
asg43
(lp294
g278
ag287
asg45
(lp295
g291
ag276
ag278
ag279
ag286
ag287
asg47
g17
sg48
I0
sg49
g17
sg50
g16
sg51
S'/home/aransena/thesis_ws/Data/robot_testing/results/526'
p296
sg53
(lp297
g17
ag14
ag15
ag16
asg55
I1
sg56
(lp298
F21.52
aF357.3312613964081
aI1
aF29.39
asg58
I1
sg59
g60
sg61
(lp299
g33
ag17
ag16
ag33
ag33
asg63
(lp300
F0.0
aF365.0136775970459
aI0
aF0.12
asg65
(lp301
g279
ag286
asg67
g14
sba(ireal_participants
participant
p302
(dp303
g3
(lp304
S'527_tablet.bag'
p305
asg6
(lp306
S'527_xbox_man.bag'
p307
aS'527_xbox_sa.bag'
p308
asg10
S'527'
p309
sg12
(lp310
g17
ag15
ag16
ag14
asg18
(lp311
F20.1
aF451.62554144859314
aI0
aF43.62
asg20
(lp312
F20.47
aF451.51624751091003
aI4
aF19.01
asg22
I1
sg23
(lp313
F24.8
aF495.2005090713501
aI3
aF0.0
asg25
(lp314
S'527_watch_man.bag'
p315
aS'527_watch_sa.bag'
p316
asg29
I4
sg30
g16
sg31
(lp317
g17
ag14
ag14
ag14
ag17
asg34
(lp318
F22.12
aF385.87744545936584
aI0
aF35.77
asg36
(lp319
S'527_phone.bag'
p320
asg39
(lp321
g16
ag16
ag16
ag16
ag16
asg41
(lp322
g16
ag33
ag14
ag17
ag17
ag16
ag14
ag17
asg43
(lp323
g307
ag315
asg45
(lp324
g307
ag315
ag305
ag316
ag320
ag308
asg47
g16
sg48
I0
sg49
g14
sg50
g16
sg51
S'/home/aransena/thesis_ws/Data/robot_testing/results/527'
p325
sg53
(lp326
g16
ag17
ag15
ag14
asg55
I1
sg56
(lp327
F21.5
aF461.6071755886078
aI3
aF14.47
asg58
I2
sg59
g60
sg61
(lp328
g17
ag16
ag16
ag16
ag16
asg63
(lp329
F21.15
aF459.1126883029938
aI0
aF0.09
asg65
(lp330
g316
ag308
asg67
g33
sba(ireal_participants
participant
p331
(dp332
g3
(lp333
S'533_tablet.bag'
p334
asg6
(lp335
S'533_xbox_man.bag'
p336
aS'533_xbox_sa.bag'
p337
asg10
S'533'
p338
sg12
(lp339
g14
ag15
ag17
ag16
asg18
(lp340
F21.67
aF238.12893557548523
aI0
aF25.92
asg20
(lp341
F22.2
aF209.5598795413971
aI0
aF0.0
asg22
I3
sg23
(lp342
F22.35
aF190.26851630210876
aI2
aF0.0
asg25
(lp343
S'533_watch_man.bag'
p344
aS'533_watch_sa.bag'
p345
asg29
I2
sg30
g33
sg31
(lp346
g16
ag16
ag16
ag17
ag14
asg34
(lp347
F22.57
aF277.4789972305298
aI1
aF88.33
asg36
(lp348
S'533_phone.bag'
p349
asg39
(lp350
g16
ag17
ag17
ag16
ag16
asg41
(lp351
g16
ag16
ag14
ag17
ag16
ag16
ag17
ag17
asg43
(lp352
g336
ag344
asg45
(lp353
g336
ag334
ag344
ag337
ag345
ag349
asg47
g16
sg48
I0
sg49
g16
sg50
g16
sg51
S'/home/aransena/thesis_ws/Data/robot_testing/results/533'
p354
sg53
(lp355
g14
ag15
ag17
ag16
asg55
I3
sg56
(lp356
F22.29
aF264.28590059280396
aI1
aF12.97
asg58
I2
sg59
g60
sg61
(lp357
g14
ag14
ag17
ag17
ag17
asg63
(lp358
F21.9
aF303.12743282318115
aI0
aF0.0
asg65
(lp359
g337
ag345
asg67
g14
sba(ireal_participants
participant
p360
(dp361
g3
(lp362
S'529_tablet.bag'
p363
asg6
(lp364
S'529_xbox_man.bag'
p365
aS'529_xbox_sa.bag'
p366
asg10
S'529'
p367
sg18
(lp368
F22.53
aF339.49237632751465
aI0
aF33.12
asg20
(lp369
F18.57
aF258.95931363105774
aI2
aF31.0
asg22
I2
sg23
(lp370
F19.34
aF257.0540211200714
aI1
aF0.0
asg25
(lp371
S'529_watch_sa.bag'
p372
aS'529_watch_man.bag'
p373
asg29
I2
sg31
(lp374
g33
ag33
ag16
ag14
ag33
asg34
(lp375
F19.14
aF227.5215404033661
aI0
aF39.41
asg36
(lp376
S'529_phone.bag'
p377
asg43
(lp378
g365
ag373
asg45
(lp379
g377
ag365
ag372
ag363
ag373
ag366
asg47
g17
sg48
I0
sg49
g33
sg50
g16
sg51
S'/home/aransena/thesis_ws/Data/robot_testing/results/529'
p380
sg55
I2
sg56
(lp381
F18.56
aF216.68525552749634
aI0
aF30.73
asg58
I1
sg63
(lp382
F21.19
aF204.18781733512878
aI0
aF0.0
asg65
(lp383
g372
ag366
asba.