(lp0
(ireal_participants
participant
p1
(dp2
S'tablet_files'
p3
(lp4
S'526_tablet.bag'
p5
asS'xbox_files'
p6
(lp7
S'526_xbox_man.bag'
p8
aS'526_xbox_sa.bag'
p9
asS'test_num'
p10
S'526'
p11
sS'post_rank_pref_sa'
p12
(lp13
S'2'
p14
aS'1'
p15
aS'3'
p16
aS'4'
p17
asS'watch_sa_data'
p18
(lp19
F19.37
aF341.00362753868103
aI1
aF39.44
asS'phone_data'
p20
(lp21
F20.08
aF322.4304304122925
aI0
aF33.16
asS'pre_ever_played'
p22
I1
sS'xbox_man_data'
p23
(lp24
F20.58
aF203.2505133152008
aI0
aF0.0
asS'watch_files'
p25
(lp26
S'526_watch_sa.bag'
p27
aS'526_watch_man.bag'
p28
asS'pre_age_range'
p29
I4
sS'post_trust'
p30
g16
sS'pre_would_be_easy'
p31
(lp32
g16
ag16
ag14
ag14
ag16
asS'tablet_data'
p33
(lp34
F21.45
aF339.7582223415375
aI2
aF85.99
asS'phone_files'
p35
(lp36
S'526_phone.bag'
p37
asS'post_rate_challenges_sa'
p38
(lp39
S'5'
p40
ag16
ag40
ag40
ag40
asS'post_ease_of_use'
p41
(lp42
g40
ag17
ag16
ag16
ag40
ag40
ag17
ag17
asS'man_files'
p43
(lp44
g8
ag28
asS'files'
p45
(lp46
g37
ag5
ag8
ag9
ag27
ag28
asS'pre_trust'
p47
g16
sS'pre_health'
p48
I0
sS'pre_ability_technology'
p49
g16
sS'pre_spatial'
p50
g17
sS'path'
p51
S'/home/aransena/thesis_ws/Data/robot_testing/results/526'
p52
sS'post_rank_pref_man'
p53
(lp54
g16
ag14
ag15
ag17
asS'pre_how_often'
p55
I1
sS'xbox_sa_data'
p56
(lp57
F21.52
aF357.3312613964081
aI1
aF29.39
asS'gender'
p58
I1
sS'post_comment'
p59
S''
p60
sS'post_rate_challenges_man'
p61
(lp62
g40
ag16
ag17
ag40
ag40
asS'watch_man_data'
p63
(lp64
F0.0
aF365.0136775970459
aI0
aF0.12
asS'sa_files'
p65
(lp66
g9
ag27
asS'post_sit_stand'
p67
g14
sba.