(lp0
(ireal_participants
participant
p1
(dp2
S'tablet_files'
p3
(lp4
S'527_tablet.bag'
p5
asS'xbox_files'
p6
(lp7
S'527_xbox_man.bag'
p8
aS'527_xbox_sa.bag'
p9
asS'test_num'
p10
S'527'
p11
sS'post_rank_pref_sa'
p12
(lp13
S'3'
p14
aS'1'
p15
aS'4'
p16
aS'2'
p17
asS'watch_sa_data'
p18
(lp19
F20.1
aF451.62554144859314
aI0
aF43.62
asS'phone_data'
p20
(lp21
F20.47
aF451.51624751091003
aI4
aF19.01
asS'pre_ever_played'
p22
I1
sS'xbox_man_data'
p23
(lp24
F24.8
aF495.2005090713501
aI3
aF0.0
asS'watch_files'
p25
(lp26
S'527_watch_man.bag'
p27
aS'527_watch_sa.bag'
p28
asS'pre_age_range'
p29
I4
sS'post_trust'
p30
g16
sS'pre_would_be_easy'
p31
(lp32
g14
ag17
ag17
ag17
ag14
asS'tablet_data'
p33
(lp34
F22.12
aF385.87744545936584
aI0
aF35.77
asS'phone_files'
p35
(lp36
S'527_phone.bag'
p37
asS'post_rate_challenges_sa'
p38
(lp39
g16
ag16
ag16
ag16
ag16
asS'post_ease_of_use'
p40
(lp41
g16
aS'5'
p42
ag17
ag14
ag14
ag16
ag17
ag14
asS'man_files'
p43
(lp44
g8
ag27
asS'files'
p45
(lp46
g8
ag27
ag5
ag28
ag37
ag9
asS'pre_trust'
p47
g16
sS'pre_health'
p48
I0
sS'pre_ability_technology'
p49
g17
sS'pre_spatial'
p50
g16
sS'path'
p51
S'/home/aransena/thesis_ws/Data/robot_testing/results/527'
p52
sS'post_rank_pref_man'
p53
(lp54
g16
ag14
ag15
ag17
asS'pre_how_often'
p55
I1
sS'xbox_sa_data'
p56
(lp57
F21.5
aF461.6071755886078
aI3
aF14.47
asS'gender'
p58
I2
sS'post_comment'
p59
S''
p60
sS'post_rate_challenges_man'
p61
(lp62
g14
ag16
ag16
ag16
ag16
asS'watch_man_data'
p63
(lp64
F21.15
aF459.1126883029938
aI0
aF0.09
asS'sa_files'
p65
(lp66
g28
ag9
asS'post_sit_stand'
p67
g42
sba.