(lp0
(ireal_participants
participant
p1
(dp2
S'tablet_files'
p3
(lp4
S'501_tablet.bag'
p5
asS'xbox_files'
p6
(lp7
S'501_xbox_man.bag'
p8
aS'501_xbox_sa.bag'
p9
asS'test_num'
p10
S'501'
p11
sS'post_rank_pref_sa'
p12
(lp13
S'2'
p14
aS'1'
p15
aS'4'
p16
aS'3'
p17
asS'watch_sa_data'
p18
(lp19
F21.57
aF282.43255281448364
aI0
aF51.02
asS'phone_data'
p20
(lp21
F20.44
aF297.2627296447754
aI2
aF77.2
asS'pre_ever_played'
p22
I3
sS'xbox_man_data'
p23
(lp24
F22.75
aF279.63302969932556
aI0
aF0.0
asS'watch_files'
p25
(lp26
S'501_watch_sa.bag'
p27
aS'501_watch_man.bag'
p28
asS'pre_age_range'
p29
I3
sS'post_trust'
p30
g17
sS'pre_would_be_easy'
p31
(lp32
S'5'
p33
ag16
ag14
ag17
ag16
asS'tablet_data'
p34
(lp35
F20.58
aF354.3858833312988
aI1
aF69.14
asS'phone_files'
p36
(lp37
S'501_phone.bag'
p38
asS'post_rate_challenges_sa'
p39
(lp40
g16
ag17
ag16
ag16
ag33
asS'post_ease_of_use'
p41
(lp42
g33
ag16
ag14
ag16
ag17
ag16
ag17
ag16
asS'man_files'
p43
(lp44
g8
ag28
asS'files'
p45
(lp46
g27
ag8
ag9
ag38
ag28
ag5
asS'pre_trust'
p47
g17
sS'pre_health'
p48
I0
sS'pre_ability_technology'
p49
g16
sS'pre_spatial'
p50
g16
sS'path'
p51
S'/home/aransena/thesis_ws/Data/robot_testing/results/501'
p52
sS'post_rank_pref_man'
p53
(lp54
g17
ag16
ag15
ag14
asS'pre_how_often'
p55
I3
sS'xbox_sa_data'
p56
(lp57
F20.76
aF344.4838984012604
aI0
aF56.65
asS'gender'
p58
I2
sS'post_comment'
p59
S''
p60
sS'post_rate_challenges_man'
p61
(lp62
g17
ag17
ag16
ag17
ag33
asS'watch_man_data'
p63
(lp64
F20.56
aF193.00572299957275
aI0
aF0.0
asS'sa_files'
p65
(lp66
g27
ag9
asS'post_sit_stand'
p67
g14
sba(ireal_participants
participant
p68
(dp69
g3
(lp70
S'502_tablet.bag'
p71
asg6
(lp72
S'502_xbox_man.bag'
p73
aS'502_xbox_sa.bag'
p74
asg10
S'502'
p75
sg12
(lp76
g17
ag14
ag16
ag33
asg18
(lp77
F22.03
aF331.9612286090851
aI1
aF24.94
asg20
(lp78
F22.84
aF355.6748924255371
aI2
aF48.11
asg22
I3
sg23
(lp79
F21.68
aF224.03005647659302
aI0
aF0.0
asg25
(lp80
S'502_watch_man.bag'
p81
aS'502_watch_sa.bag'
p82
asg29
I1
sg30
g17
sg31
(lp83
g14
ag17
ag33
ag16
ag16
asg34
(lp84
F21.38
aF287.8335256576538
aI1
aF65.71
asg36
(lp85
S'502_phone.bag'
p86
asg39
(lp87
g16
ag16
ag14
ag16
ag17
asg41
(lp88
g14
ag17
ag16
ag33
ag14
ag17
ag17
ag16
asg43
(lp89
g81
ag73
asg45
(lp90
g81
ag71
ag86
ag82
ag73
ag74
asg47
g16
sg48
I0
sg49
g16
sg50
g33
sg51
S'/home/aransena/thesis_ws/Data/robot_testing/results/502'
p91
sg53
(lp92
g17
ag14
ag15
ag16
asg55
I4
sg56
(lp93
F20.11
aF213.48375153541565
aI1
aF15.13
asg58
I2
sg59
g60
sg61
(lp94
g17
ag17
ag15
ag16
ag16
asg63
(lp95
F19.92
aF207.35547542572021
aI0
aF0.0
asg65
(lp96
g82
ag74
asg67
g16
sba(ireal_participants
participant
p97
(dp98
g3
(lp99
S'507_tablet.bag'
p100
asg6
(lp101
S'507_xbox_sa.bag'
p102
aS'507_xbox_man.bag'
p103
asg10
S'507'
p104
sg12
(lp105
g15
ag17
ag14
ag16
asg18
(lp106
F19.26
aF312.91040897369385
aI0
aF39.62
asg20
(lp107
F22.17
aF394.16313433647156
aI0
aF72.5
asg22
I4
sg23
(lp108
F23.66
aF376.7095582485199
aI1
aF0.08
asg25
(lp109
S'507_watch_sa.bag'
p110
aS'507_watch_man.bag'
p111
asg29
I2
sg30
g17
sg31
(lp112
g33
ag33
ag17
ag16
ag16
asg34
(lp113
F21.22
aF300.0518274307251
aI1
aF58.2
asg36
(lp114
S'507_phone.bag'
p115
asg39
(lp116
g16
ag17
ag17
ag16
ag17
asg41
(lp117
g16
ag16
ag15
ag15
ag16
ag16
ag16
ag16
asg43
(lp118
g103
ag111
asg45
(lp119
g102
ag110
ag100
ag115
ag103
ag111
asg47
g14
sg48
I0
sg49
g16
sg50
g16
sg51
S'/home/aransena/thesis_ws/Data/robot_testing/results/507'
p120
sg53
(lp121
g14
ag15
ag17
ag16
asg55
I4
sg56
(lp122
F18.05
aF217.82855987548828
aI0
aF20.14
asg58
I2
sg59
g60
sg61
(lp123
g33
ag17
ag16
ag16
ag17
asg63
(lp124
F22.21
aF242.94363975524902
aI0
aF0.17
asg65
(lp125
g102
ag110
asg67
g14
sba(ireal_participants
participant
p126
(dp127
g3
(lp128
S'504_tablet.bag'
p129
asg6
(lp130
S'504_xbox_sa.bag'
p131
aS'504_xbox_man.bag'
p132
asg10
S'504'
p133
sg12
(lp134
g14
ag17
ag15
ag16
asg18
(lp135
F23.23
aF386.15240931510925
aI2
aF24.76
asg20
(lp136
F20.63
aF349.38336086273193
aI6
aF31.38
asg22
I2
sg23
(lp137
F20.68
aF237.86830639839172
aI0
aF0.0
asg25
(lp138
S'504_watch_man.bag'
p139
aS'504_watch_sa.bag'
p140
asg29
I3
sg30
g16
sg31
(lp141
g16
ag16
ag14
ag17
ag16
asg34
(lp142
F19.85
aF374.5381851196289
aI0
aF22.8
asg36
(lp143
S'504_phone.bag'
p144
asg39
(lp145
g17
ag15
ag14
ag33
ag16
asg41
(lp146
g17
ag14
ag17
ag14
ag17
ag17
ag16
ag16
asg43
(lp147
g139
ag132
asg45
(lp148
g129
ag131
ag139
ag144
ag132
ag140
asg47
g16
sg48
I1
sg49
g16
sg50
g16
sg51
S'/home/aransena/thesis_ws/Data/robot_testing/results/504'
p149
sg53
(lp150
g16
ag15
ag14
ag17
asg55
I2
sg56
(lp151
F20.3
aF292.56960892677307
aI1
aF10.45
asg58
I1
sg59
g60
sg61
(lp152
g33
ag14
ag15
ag17
ag16
asg63
(lp153
F21.51
aF237.6772050857544
aI3
aF0.0
asg65
(lp154
g131
ag140
asg67
g15
sba(ireal_participants
participant
p155
(dp156
g3
(lp157
S'530_tablet.bag'
p158
asg6
(lp159
S'530_xbox_sa.bag'
p160
aS'530_xbox_man.bag'
p161
asg10
S'530'
p162
sg12
(lp163
g14
ag17
ag15
ag16
asg18
(lp164
F20.49
aF262.6713593006134
aI0
aF38.2
asg20
(lp165
F20.04
aF286.7726962566376
aI0
aF49.69
asg22
I2
sg23
(lp166
F21.02
aF177.25406336784363
aI0
aF0.0
asg25
(lp167
S'530_watch_sa.bag'
p168
aS'530_watch_man.bag'
p169
asg29
I1
sg30
g33
sg31
(lp170
g33
ag33
ag33
ag33
ag33
asg34
(lp171
F20.13
aF251.78590774536133
aI0
aF52.0
asg36
(lp172
S'530_phone.bag'
p173
asg39
(lp174
g33
ag33
ag33
ag33
ag33
asg41
(lp175
g33
ag16
ag33
ag16
ag33
ag33
ag33
ag33
asg43
(lp176
g161
ag169
asg45
(lp177
g168
ag160
ag173
ag158
ag161
ag169
asg47
g33
sg48
I0
sg49
g16
sg50
g16
sg51
S'/home/aransena/thesis_ws/Data/robot_testing/results/530'
p178
sg53
(lp179
g16
ag17
ag15
ag14
asg55
I2
sg56
(lp180
F21.29
aF273.7697904109955
aI0
aF29.67
asg58
I1
sg59
S'Difficulty turning on the spot without moving forward/backward when not using watch'
p181
sg61
(lp182
g16
ag16
ag16
ag16
ag16
asg63
(lp183
F21.03
aF170.80404233932495
aI0
aF0.0
asg65
(lp184
g168
ag160
asg67
g14
sba(ireal_participants
participant
p185
(dp186
g3
(lp187
S'512_tablet.bag'
p188
asg6
(lp189
S'512_xbox_sa.bag'
p190
aS'512_xbox_man.bag'
p191
asg10
S'512'
p192
sg12
(lp193
g16
ag14
ag15
ag17
asg18
(lp194
F22.16
aF211.49760270118713
aI0
aF23.42
asg20
(lp195
F23.04
aF231.1470103263855
aI1
aF53.87
asg22
I4
sg23
(lp196
F20.93
aF177.13793277740479
aI0
aF0.0
asg25
(lp197
S'512_watch_sa.bag'
p198
aS'512_watch_man.bag'
p199
asg29
I2
sg30
g33
sg31
(lp200
g33
ag33
ag33
ag33
ag33
asg34
(lp201
F22.01
aF260.3735156059265
aI0
aF29.97
asg36
(lp202
S'512_phone.bag'
p203
asg39
(lp204
g16
ag15
ag14
ag33
ag17
asg41
(lp205
g33
ag33
ag33
ag33
ag33
ag33
ag33
ag33
asg43
(lp206
g191
ag199
asg45
(lp207
g188
ag198
ag203
ag190
ag191
ag199
asg47
g33
sg48
I0
sg49
g16
sg50
g33
sg51
S'/home/aransena/thesis_ws/Data/robot_testing/results/512'
p208
sg53
(lp209
g14
ag16
ag17
ag15
asg55
I3
sg56
(lp210
F21.24
aF187.82772660255432
aI0
aF17.42
asg58
I1
sg59
S'Na'
p211
sg61
(lp212
g16
ag15
ag14
ag33
ag17
asg63
(lp213
F21.32
aF191.51208782196045
aI1
aF0.0
asg65
(lp214
g198
ag190
asg67
g17
sba(ireal_participants
participant
p215
(dp216
g3
(lp217
S'528_tablet.bag'
p218
asg6
(lp219
S'528_xbox_sa.bag'
p220
aS'528_xbox_man.bag'
p221
asg10
S'528'
p222
sg12
(lp223
g15
ag17
ag14
ag16
asg18
(lp224
F22.44
aF195.94462037086487
aI0
aF19.09
asg20
(lp225
F22.01
aF242.5545153617859
aI0
aF11.73
asg22
I1
sg23
(lp226
F22.47
aF305.59501814842224
aI2
aF0.0
asg25
(lp227
S'528_watch_man.bag'
p228
aS'528_watch_sa.bag'
p229
asg29
I2
sg30
g33
sg31
(lp230
g33
ag33
ag16
ag16
ag33
asg34
(lp231
F22.72
aF243.92030119895935
aI1
aF26.17
asg36
(lp232
S'528_phone.bag'
p233
asg39
(lp234
g14
ag33
ag16
ag33
ag33
asg41
(lp235
g33
ag16
ag33
ag16
ag33
ag16
ag33
ag16
asg43
(lp236
g228
ag221
asg45
(lp237
g218
ag233
ag228
ag220
ag221
ag229
asg47
g33
sg48
I0
sg49
g16
sg50
g33
sg51
S'/home/aransena/thesis_ws/Data/robot_testing/results/528'
p238
sg53
(lp239
g15
ag17
ag14
ag16
asg55
I2
sg56
(lp240
F21.39
aF223.55435991287231
aI0
aF21.82
asg58
I1
sg59
S'turning with x box controller had a speed increase. '
p241
sg61
(lp242
g14
ag16
ag17
ag17
ag33
asg63
(lp243
F21.45
aF168.83944177627563
aI0
aF0.0
asg65
(lp244
g220
ag229
asg67
g14
sba(ireal_participants
participant
p245
(dp246
g3
(lp247
S'532_tablet.bag'
p248
asg6
(lp249
S'532_xbox_man.bag'
p250
aS'532_xbox_sa.bag'
p251
asg10
S'532'
p252
sg12
(lp253
g17
ag15
ag14
ag16
asg18
(lp254
F18.05
aF203.51486110687256
aI0
aF31.1
asg20
(lp255
F22.52
aF211.7410957813263
aI1
aF58.79
asg22
I3
sg23
(lp256
F19.81
aF253.27346086502075
aI1
aF1.17
asg25
(lp257
S'532_watch_man.bag'
p258
aS'532_watch_sa.bag'
p259
asg29
I1
sg30
g16
sg31
(lp260
g33
ag33
ag17
ag16
ag16
asg34
(lp261
F19.38
aF233.70374822616577
aI0
aF35.8
asg36
(lp262
S'532_phone.bag'
p263
asg39
(lp264
g16
ag17
ag16
ag33
ag33
asg41
(lp265
g33
ag33
ag14
ag16
ag33
ag33
ag16
ag33
asg43
(lp266
g258
ag250
asg45
(lp267
g258
ag250
ag248
ag263
ag259
ag251
asg47
g16
sg48
I0
sg49
g16
sg50
g16
sg51
S'/home/aransena/thesis_ws/Data/robot_testing/results/532'
p268
sg53
(lp269
g15
ag17
ag14
ag16
asg55
I2
sg56
(lp270
F18.05
aF217.82855987548828
aI0
aF20.14
asg58
I2
sg59
g60
sg61
(lp271
g14
ag14
ag17
ag17
ag33
asg63
(lp272
F19.51
aF193.50738072395325
aI0
aF0.0
asg65
(lp273
g259
ag251
asg67
g14
sba(ireal_participants
participant
p274
(dp275
g3
(lp276
S'513_tablet.bag'
p277
asg6
(lp278
S'513_xbox_man.bag'
p279
aS'513_xbox_sa.bag'
p280
asg10
S'513'
p281
sg12
(lp282
g16
ag15
ag17
ag14
asg18
(lp283
F22.09
aF310.7042489051819
aI0
aF33.16
asg20
(lp284
F23.27
aF267.5930006504059
aI1
aF20.84
asg22
I2
sg23
(lp285
F21.95
aF176.53118658065796
aI0
aF0.0
asg25
(lp286
S'513_watch_sa.bag'
p287
aS'513_watch_man.bag'
p288
asg29
I2
sg30
g33
sg31
(lp289
g33
ag33
ag33
ag16
ag33
asg34
(lp290
F22.94
aF279.46274995803833
aI1
aF0.0
asg36
(lp291
S'513_phone.bag'
p292
asg39
(lp293
g17
ag16
ag17
ag16
ag15
asg41
(lp294
g16
ag33
ag16
ag16
ag17
ag17
ag16
ag16
asg43
(lp295
g279
ag288
asg45
(lp296
g279
ag287
ag292
ag288
ag280
ag277
asg47
g16
sg48
I0
sg49
g16
sg50
g16
sg51
S'/home/aransena/thesis_ws/Data/robot_testing/results/513'
p297
sg53
(lp298
g17
ag16
ag15
ag14
asg55
I2
sg56
(lp299
F21.42
aF303.273579120636
aI2
aF21.04
asg58
I1
sg59
g60
sg61
(lp300
g14
ag17
ag14
ag17
ag16
asg63
(lp301
F21.84
aF204.02653408050537
aI1
aF0.2
asg65
(lp302
g287
ag280
asg67
g14
sba(ireal_participants
participant
p303
(dp304
g3
(lp305
S'533_tablet.bag'
p306
asg6
(lp307
S'533_xbox_man.bag'
p308
aS'533_xbox_sa.bag'
p309
asg10
S'533'
p310
sg12
(lp311
g14
ag15
ag17
ag16
asg18
(lp312
F21.67
aF238.12893557548523
aI0
aF25.92
asg20
(lp313
F22.2
aF209.5598795413971
aI0
aF0.0
asg22
I3
sg23
(lp314
F22.35
aF190.26851630210876
aI2
aF0.0
asg25
(lp315
S'533_watch_man.bag'
p316
aS'533_watch_sa.bag'
p317
asg29
I2
sg30
g33
sg31
(lp318
g16
ag16
ag16
ag17
ag14
asg34
(lp319
F22.57
aF277.4789972305298
aI1
aF88.33
asg36
(lp320
S'533_phone.bag'
p321
asg39
(lp322
g16
ag17
ag17
ag16
ag16
asg41
(lp323
g16
ag16
ag14
ag17
ag16
ag16
ag17
ag17
asg43
(lp324
g308
ag316
asg45
(lp325
g308
ag306
ag316
ag309
ag317
ag321
asg47
g16
sg48
I0
sg49
g16
sg50
g16
sg51
S'/home/aransena/thesis_ws/Data/robot_testing/results/533'
p326
sg53
(lp327
g14
ag15
ag17
ag16
asg55
I3
sg56
(lp328
F22.29
aF264.28590059280396
aI1
aF12.97
asg58
I2
sg59
g60
sg61
(lp329
g14
ag14
ag17
ag17
ag17
asg63
(lp330
F21.9
aF303.12743282318115
aI0
aF0.0
asg65
(lp331
g309
ag317
asg67
g14
sba.