(lp0
(ireal_participants
participant
p1
(dp2
S'tablet_files'
p3
(lp4
S'531_tablet.bag'
p5
asS'xbox_files'
p6
(lp7
S'531_xbox_sa.bag'
p8
aS'531_xbox_man.bag'
p9
asS'test_num'
p10
S'531'
p11
sS'post_rank_pref_sa'
p12
(lp13
S'3'
p14
aS'1'
p15
aS'4'
p16
aS'2'
p17
asS'watch_sa_data'
p18
(lp19
F20.37
aF221.0676498413086
aI0
aF20.16
asS'phone_data'
p20
(lp21
F22.83
aF240.15599918365479
aI2
aF29.78
asS'pre_ever_played'
p22
I4
sS'xbox_man_data'
p23
(lp24
F20.82
aF198.48191809654236
aI0
aF0.0
asS'watch_files'
p25
(lp26
S'531_watch_man.bag'
p27
aS'531_watch_sa.bag'
p28
asS'pre_age_range'
p29
I2
sS'post_trust'
p30
S'5'
p31
sS'pre_would_be_easy'
p32
(lp33
g16
ag31
ag31
ag16
ag16
asS'tablet_data'
p34
(lp35
F20.3
aF220.7873251438141
aI0
aF49.34
asS'phone_files'
p36
(lp37
S'531_phone.bag'
p38
asS'post_rate_challenges_sa'
p39
(lp40
g31
ag31
ag31
ag31
ag31
asS'post_ease_of_use'
p41
(lp42
g31
ag31
ag16
ag16
ag16
ag16
ag31
ag31
asS'man_files'
p43
(lp44
g27
ag9
asS'files'
p45
(lp46
g27
ag38
ag8
ag9
ag5
ag28
asS'pre_trust'
p47
g31
sS'pre_health'
p48
I0
sS'pre_ability_technology'
p49
g31
sS'pre_spatial'
p50
g31
sS'path'
p51
S'/home/aransena/thesis_ws/Data/robot_testing/results/531'
p52
sS'post_rank_pref_man'
p53
(lp54
g14
ag16
ag17
ag15
asS'pre_how_often'
p55
I4
sS'xbox_sa_data'
p56
(lp57
F20.1
aF180.4177052974701
aI0
aF32.26
asS'gender'
p58
I1
sS'post_comment'
p59
S''
p60
sS'post_rate_challenges_man'
p61
(lp62
g31
ag16
ag16
ag16
ag31
asS'watch_man_data'
p63
(lp64
F20.81
aF177.29782891273499
aI0
aF0.0
asS'sa_files'
p65
(lp66
g8
ag28
asS'post_sit_stand'
p67
g17
sba(ireal_participants
participant
p68
(dp69
g3
(lp70
S'510_tablet.bag'
p71
asg6
(lp72
S'510_xbox_man.bag'
p73
aS'510_xbox_sa.bag'
p74
asg10
S'510'
p75
sg12
(lp76
g16
ag17
ag15
ag14
asg18
(lp77
F20.03
aF344.0368528366089
aI0
aF31.02
asg20
(lp78
F18.73
aF187.95448517799377
aI0
aF17.24
asg22
I4
sg23
(lp79
F20.52
aF219.64056301116943
aI1
aF0.0
asg25
(lp80
S'510_watch_sa.bag'
p81
aS'510_watch_man.bag'
p82
asg29
I1
sg30
g14
sg32
(lp83
g16
ag16
ag31
ag14
ag31
asg34
(lp84
F19.71
aF288.2473385334015
aI1
aF35.42
asg36
(lp85
S'510_phone.bag'
p86
asg39
(lp87
g31
ag14
ag31
ag31
ag31
asg41
(lp88
g16
ag16
ag31
ag31
ag14
ag14
ag14
ag14
asg43
(lp89
g73
ag82
asg45
(lp90
g81
ag73
ag82
ag86
ag74
ag71
asg47
g14
sg48
I0
sg49
g31
sg50
g31
sg51
S'/home/aransena/thesis_ws/Data/robot_testing/results/510'
p91
sg53
(lp92
g15
ag17
ag14
ag16
asg55
I5
sg56
(lp93
F20.27
aF323.95311975479126
aI1
aF21.4
asg58
I1
sg59
g60
sg61
(lp94
g14
ag14
ag17
ag14
ag31
asg63
(lp95
F19.68
aF179.34899020195007
aI0
aF0.0
asg65
(lp96
g81
ag74
asg67
g16
sba(ireal_participants
participant
p97
(dp98
g3
(lp99
S'522_tablet.bag'
p100
asg6
(lp101
S'522_xbox_sa.bag'
p102
aS'522_xbox_man.bag'
p103
asg10
S'522'
p104
sg12
(lp105
g15
ag16
ag17
ag14
asg18
(lp106
F11.75
aF198.63783288002014
aI0
aF45.44
asg20
(lp107
F19.67
aF251.5414571762085
aI3
aF54.48
asg22
I3
sg23
(lp108
F21.9
aF229.3459529876709
aI3
aF0.0
asg25
(lp109
S'522_watch_man.bag'
p110
aS'522_watch_sa.bag'
p111
asg29
I4
sg30
g16
sg32
(lp112
g31
ag31
ag14
ag16
ag31
asg34
(lp113
F21.81
aF245.41741704940796
aI3
aF50.43
asg36
(lp114
S'522_phone.bag'
p115
asg39
(lp116
g31
ag16
ag16
ag14
ag17
asg41
(lp117
g15
ag17
ag14
ag16
ag16
ag31
ag16
ag31
asg43
(lp118
g110
ag103
asg45
(lp119
g110
ag111
ag102
ag103
ag100
ag115
asg47
g16
sg48
I0
sg49
g31
sg50
g31
sg51
S'/home/aransena/thesis_ws/Data/robot_testing/results/522'
p120
sg53
(lp121
g17
ag15
ag16
ag14
asg55
I4
sg56
(lp122
F22.47
aF258.32990312576294
aI0
aF39.65
asg58
I1
sg59
g60
sg61
(lp123
g31
ag17
ag17
ag14
ag17
asg63
(lp124
F21.54
aF287.22557377815247
aI0
aF0.0
asg65
(lp125
g111
ag102
asg67
g14
sba(ireal_participants
participant
p126
(dp127
g3
(lp128
S'506_tablet.bag'
p129
asg6
(lp130
S'506_xbox_sa.bag'
p131
aS'506_xbox_man.bag'
p132
asg10
S'506'
p133
sg12
(lp134
g16
ag17
ag14
ag31
asg18
(lp135
F19.35
aF252.76305985450745
aI0
aF55.25
asg20
(lp136
F24.09
aF413.41479873657227
aI2
aF23.22
asg22
I4
sg23
(lp137
F21.1
aF193.40440702438354
aI0
aF0.0
asg25
(lp138
S'506_watch_sa.bag'
p139
aS'506_watch_man.bag'
p140
asg29
I1
sg30
g14
sg32
(lp141
g31
ag31
ag31
ag16
ag31
asg34
(lp142
F19.58
aF270.28555941581726
aI0
aF75.05
asg36
(lp143
S'506_phone.bag'
p144
asg39
(lp145
g16
ag16
ag17
ag14
ag15
asg41
(lp146
g17
ag14
ag14
ag16
ag14
ag16
ag14
ag16
asg43
(lp147
g132
ag140
asg45
(lp148
g139
ag144
ag129
ag131
ag132
ag140
asg47
g14
sg48
I0
sg49
g31
sg50
g16
sg51
S'/home/aransena/thesis_ws/Data/robot_testing/results/506'
p149
sg53
(lp150
g14
ag17
ag16
ag15
asg55
I4
sg56
(lp151
F21.99
aF276.92030787467957
aI0
aF4.88
asg58
I1
sg59
S'Manually controlling the robot with the smart watch was the biggest challenge.'
p152
sg61
(lp153
g14
ag17
ag16
ag14
ag16
asg63
(lp154
F0.0
aF383.1185462474823
aI1
aF0.0
asg65
(lp155
g139
ag131
asg67
g14
sba(ireal_participants
participant
p156
(dp157
g3
(lp158
S'511_tablet.bag'
p159
asg6
(lp160
S'511_xbox_man.bag'
p161
aS'511_xbox_sa.bag'
p162
asg10
S'511'
p163
sg12
(lp164
g17
ag16
ag14
ag15
asg18
(lp165
F19.48
aF270.5371198654175
aI0
aF39.17
asg20
(lp166
F20.13
aF176.0304307937622
aI1
aF9.01
asg22
I2
sg23
(lp167
F19.25
aF164.03920316696167
aI0
aF0.0
asg25
(lp168
S'511_watch_man.bag'
p169
aS'511_watch_sa.bag'
p170
asg29
I2
sg30
g14
sg32
(lp171
g16
ag16
ag31
ag14
ag31
asg34
(lp172
F18.21
aF188.1677324771881
aI0
aF56.8
asg36
(lp173
S'511_phone.bag'
p174
asg39
(lp175
g31
ag16
ag16
ag17
ag16
asg41
(lp176
g14
ag16
ag31
ag31
ag16
ag16
ag14
ag16
asg43
(lp177
g161
ag169
asg45
(lp178
g161
ag162
ag159
ag174
ag169
ag170
asg47
g14
sg48
I0
sg49
g31
sg50
g16
sg51
S'/home/aransena/thesis_ws/Data/robot_testing/results/511'
p179
sg53
(lp180
g14
ag17
ag16
ag15
asg55
I3
sg56
(lp181
F20.3
aF225.88768649101257
aI1
aF0.0
asg58
I1
sg59
g60
sg61
(lp182
g31
ag16
ag14
ag17
ag14
asg63
(lp183
F20.08
aF214.44025874137878
aI0
aF0.14
asg65
(lp184
g162
ag170
asg67
g14
sba(ireal_participants
participant
p185
(dp186
g3
(lp187
S'503_tablet.bag'
p188
asg6
(lp189
S'503_xbox_sa.bag'
p190
aS'503_xbox_man.bag'
p191
asg10
S'503'
p192
sg12
(lp193
g17
ag16
ag14
ag15
asg18
(lp194
F22.78
aF301.894739151001
aI1
aF43.59
asg20
(lp195
F22.35
aF341.36158871650696
aI1
aF37.56
asg22
I3
sg23
(lp196
F22.76
aF228.9703767299652
aI2
aF0.0
asg25
(lp197
S'503_watch_sa.bag'
p198
aS'503_watch_man.bag'
p199
asg29
I1
sg30
g31
sg32
(lp200
g31
ag31
ag31
ag16
ag31
asg34
(lp201
F21.9
aF306.77406907081604
aI1
aF18.93
asg36
(lp202
S'503_phone.bag'
p203
asg39
(lp204
g31
ag31
ag14
ag31
ag14
asg41
(lp205
g14
ag31
ag31
ag31
ag16
ag31
ag16
ag31
asg43
(lp206
g191
ag199
asg45
(lp207
g203
ag190
ag191
ag198
ag188
ag199
asg47
g31
sg48
I0
sg49
g31
sg50
g31
sg51
S'/home/aransena/thesis_ws/Data/robot_testing/results/503'
p208
sg53
(lp209
g14
ag17
ag16
ag15
asg55
I3
sg56
(lp210
F21.27
aF193.3876485824585
aI0
aF25.02
asg58
I1
sg59
S'"Having to cancel your rotate command when using manual watch I found challengi'
p211
sg61
(lp212
g17
ag16
ag17
ag14
ag31
asg63
(lp213
F22.62
aF230.59352445602417
aI1
aF0.0
asg65
(lp214
g190
ag198
asg67
g17
sba(ireal_participants
participant
p215
(dp216
g3
(lp217
S'529_tablet.bag'
p218
asg6
(lp219
S'529_xbox_man.bag'
p220
aS'529_xbox_sa.bag'
p221
asg10
S'529'
p222
sg18
(lp223
F22.53
aF339.49237632751465
aI0
aF33.12
asg20
(lp224
F18.57
aF258.95931363105774
aI2
aF31.0
asg22
I2
sg23
(lp225
F19.34
aF257.0540211200714
aI1
aF0.0
asg25
(lp226
S'529_watch_sa.bag'
p227
aS'529_watch_man.bag'
p228
asg29
I2
sg32
(lp229
g31
ag31
ag16
ag17
ag31
asg34
(lp230
F19.14
aF227.5215404033661
aI0
aF39.41
asg36
(lp231
S'529_phone.bag'
p232
asg43
(lp233
g220
ag228
asg45
(lp234
g232
ag220
ag227
ag218
ag228
ag221
asg47
g14
sg48
I0
sg49
g31
sg50
g16
sg51
S'/home/aransena/thesis_ws/Data/robot_testing/results/529'
p235
sg55
I2
sg56
(lp236
F18.56
aF216.68525552749634
aI0
aF30.73
asg58
I1
sg63
(lp237
F21.19
aF204.18781733512878
aI0
aF0.0
asg65
(lp238
g227
ag221
asba.